	.file	"viz.c"
	.text
.Ltext0:
	.file 0 "/users/cp2025/cp2025_093/lab3/lab1" "viz.c"
	.section	.rodata.str1.1,"aMS",@progbits,1
.LC5:
	.string	"%f\t%f\t%f\t%f\n"
	.text
	.p2align 4
	.type	idle_func, @function
idle_func:
.LFB15:
	.file 1 "viz.c"
	.loc 1 130 1 view -0
	.cfi_startproc
	.loc 1 132 5 view .LVU1
	.loc 1 130 1 is_stmt 0 view .LVU2
	pushq	%r13
	.cfi_def_cfa_offset 16
	.cfi_offset 13, -16
	leaq	16(%rsp), %r13
	.cfi_def_cfa 13, 0
	andq	$-32, %rsp
	pushq	-8(%r13)
	pushq	%rbp
	movq	%rsp, %rbp
	.cfi_escape 0x10,0x6,0x2,0x76,0
	pushq	%r14
	pushq	%r13
	.cfi_escape 0xf,0x3,0x76,0x70,0x6
	.cfi_escape 0x10,0xe,0x2,0x76,0x78
	pushq	%r12
	pushq	%rbx
	subq	$48, %rsp
	.cfi_escape 0x10,0xc,0x2,0x76,0x68
	.cfi_escape 0x10,0x3,0x2,0x76,0x60
	.loc 1 132 18 view .LVU3
	movl	switcher(%rip), %eax
	.loc 1 132 8 view .LVU4
	cmpl	$3, %eax
	je	.L25
	.loc 1 147 12 is_stmt 1 view .LVU5
	.loc 1 147 15 is_stmt 0 view .LVU6
	cmpl	$2, %eax
	je	.L26
	.loc 1 175 12 is_stmt 1 view .LVU7
	.loc 1 175 15 is_stmt 0 view .LVU8
	cmpl	$1, %eax
	je	.L27
	.loc 1 200 12 is_stmt 1 view .LVU9
	.loc 1 200 15 is_stmt 0 view .LVU10
	testl	%eax, %eax
	jne	.L3
	.loc 1 202 29 is_stmt 1 view .LVU11
	imull	$652835029, frames(%rip), %eax
	addl	$17179868, %eax
	rorx	$2, %eax, %eax
	cmpl	$8589934, %eax
	jbe	.L14
	vmovsd	.LC12(%rip), %xmm6
	.loc 1 204 13 is_stmt 0 view .LVU12
	movq	vxyz(%rip), %rsi
	leaq	Temp(%rip), %r12
	leaq	Epot(%rip), %rbx
	vmovq	%xmm6, %r14
.L13:
	.loc 1 204 13 is_stmt 1 view .LVU13
	subq	$8, %rsp
	movq	%rbx, %rcx
	leaq	Pres(%rip), %r9
	leaq	Ekin(%rip), %r8
	pushq	%r12
	vmovsd	V(%rip), %xmm1
	vmovsd	box_size(%rip), %xmm2
	vmovsd	Rho(%rip), %xmm0
	movq	fxyz(%rip), %rdx
	movq	rxyz(%rip), %rdi
	call	velocity_verlet@PLT
.LVL0:
	.loc 1 207 13 view .LVU14
	.loc 1 207 18 is_stmt 0 view .LVU15
	vmovq	%r14, %xmm5
	vdivsd	Temp(%rip), %xmm5, %xmm1
.LBB4:
	.loc 1 209 21 view .LVU16
	movq	vxyz(%rip), %rsi
	popq	%rcx
	popq	%rdi
	movq	%rsi, %rax
	leaq	32928(%rsi), %rdx
.LBE4:
	.loc 1 207 18 view .LVU17
	vsqrtsd	%xmm1, %xmm1, %xmm1
	.loc 1 208 13 is_stmt 1 view .LVU18
.LBB5:
	.loc 1 208 18 view .LVU19
.LVL1:
	.loc 1 208 31 discriminator 1 view .LVU20
	vbroadcastsd	%xmm1, %ymm1
.LVL2:
	.loc 1 208 31 is_stmt 0 discriminator 1 view .LVU21
	.p2align 5
	.p2align 4
	.p2align 3
.L12:
	.loc 1 209 17 is_stmt 1 view .LVU22
	.loc 1 209 25 is_stmt 0 view .LVU23
	vmulpd	(%rax), %ymm1, %ymm0
	addq	$32, %rax
	vmovupd	%ymm0, -32(%rax)
	.loc 1 208 44 is_stmt 1 discriminator 3 view .LVU24
	.loc 1 208 31 discriminator 1 view .LVU25
	cmpq	%rax, %rdx
	jne	.L12
.LBE5:
	.loc 1 212 13 view .LVU26
	.loc 1 212 19 is_stmt 0 view .LVU27
	movl	frames(%rip), %eax
	incl	%eax
	movl	%eax, frames(%rip)
	.loc 1 202 29 is_stmt 1 view .LVU28
	.loc 1 212 19 is_stmt 0 view .LVU29
	imull	$652835029, %eax, %eax
	addl	$17179868, %eax
	rorx	$2, %eax, %eax
	.loc 1 202 29 view .LVU30
	cmpl	$8589934, %eax
	jbe	.L28
	vzeroupper
.LVL3:
	jmp	.L13
.L27:
	.loc 1 177 9 is_stmt 1 view .LVU31
.LBB6:
	.loc 1 177 14 view .LVU32
	vmovsd	.LC12(%rip), %xmm7
	.loc 1 177 18 is_stmt 0 view .LVU33
	movl	frames(%rip), %r13d
.LVL4:
	.loc 1 177 32 is_stmt 1 discriminator 1 view .LVU34
	leaq	Temp(%rip), %r12
	leaq	Epot(%rip), %rbx
.LBE6:
	.loc 1 204 13 is_stmt 0 view .LVU35
	movq	vxyz(%rip), %rsi
	vmovq	%xmm7, %r14
	.p2align 4
	.p2align 3
.L9:
.LBB9:
	.loc 1 179 13 is_stmt 1 view .LVU36
	subq	$8, %rsp
	leaq	Pres(%rip), %r9
	leaq	Ekin(%rip), %r8
	movq	%rbx, %rcx
	pushq	%r12
	vmovsd	V(%rip), %xmm1
	vmovsd	box_size(%rip), %xmm2
	vmovsd	Rho(%rip), %xmm0
	movq	fxyz(%rip), %rdx
	movq	rxyz(%rip), %rdi
	call	velocity_verlet@PLT
.LVL5:
	.loc 1 182 13 view .LVU37
	.loc 1 182 18 is_stmt 0 view .LVU38
	vmovq	%r14, %xmm4
	vdivsd	Temp(%rip), %xmm4, %xmm1
.LBB7:
	.loc 1 184 21 view .LVU39
	movq	vxyz(%rip), %rsi
	popq	%r8
	popq	%r9
	movq	%rsi, %rax
	leaq	32928(%rsi), %rdx
.LBE7:
	.loc 1 182 18 view .LVU40
	vsqrtsd	%xmm1, %xmm1, %xmm1
	.loc 1 183 13 is_stmt 1 view .LVU41
.LBB8:
	.loc 1 183 18 view .LVU42
.LVL6:
	.loc 1 183 31 discriminator 1 view .LVU43
	vbroadcastsd	%xmm1, %ymm1
.LVL7:
	.loc 1 183 31 is_stmt 0 discriminator 1 view .LVU44
	.p2align 5
	.p2align 4
	.p2align 3
.L8:
	.loc 1 184 17 is_stmt 1 view .LVU45
	.loc 1 184 25 is_stmt 0 view .LVU46
	vmulpd	(%rax), %ymm1, %ymm0
	addq	$32, %rax
	vmovupd	%ymm0, -32(%rax)
	.loc 1 183 44 is_stmt 1 discriminator 3 view .LVU47
	.loc 1 183 31 discriminator 1 view .LVU48
	cmpq	%rax, %rdx
	jne	.L8
.LBE8:
	.loc 1 177 48 discriminator 2 view .LVU49
	.loc 1 177 32 is_stmt 0 discriminator 1 view .LVU50
	movl	frames(%rip), %eax
	.loc 1 177 48 discriminator 2 view .LVU51
	incl	%r13d
.LVL8:
	.loc 1 177 32 is_stmt 1 discriminator 1 view .LVU52
	leal	9(%rax), %edx
	cmpl	%r13d, %edx
	jl	.L29
	vzeroupper
.LVL9:
	jmp	.L9
.LVL10:
.L28:
	.loc 1 177 32 is_stmt 0 discriminator 1 view .LVU53
	vzeroupper
.LVL11:
.L14:
.LBE9:
	.loc 1 215 9 is_stmt 1 view .LVU54
	.loc 1 215 13 is_stmt 0 view .LVU55
	movl	$0, mes(%rip)
	.loc 1 216 9 is_stmt 1 view .LVU56
	.loc 1 216 15 is_stmt 0 view .LVU57
	movq	$0x000000000, epotm(%rip)
	.loc 1 217 9 is_stmt 1 view .LVU58
	.loc 1 217 15 is_stmt 0 view .LVU59
	movq	$0x000000000, presm(%rip)
	.loc 1 219 9 is_stmt 1 view .LVU60
	.loc 1 219 18 is_stmt 0 view .LVU61
	movl	$1, switcher(%rip)
.L3:
	.loc 1 221 5 is_stmt 1 view .LVU62
	movl	win_id(%rip), %edi
	call	glutSetWindow@PLT
.LVL12:
	.loc 1 222 5 view .LVU63
	.loc 1 223 1 is_stmt 0 view .LVU64
	leaq	-32(%rbp), %rsp
	popq	%rbx
	popq	%r12
	popq	%r13
	.cfi_remember_state
	.cfi_def_cfa 13, 0
	popq	%r14
	popq	%rbp
	leaq	-16(%r13), %rsp
	.cfi_def_cfa 7, 16
	popq	%r13
	.cfi_def_cfa_offset 8
	.loc 1 222 5 view .LVU65
	jmp	glutPostRedisplay@PLT
.LVL13:
.L29:
	.cfi_restore_state
	.loc 1 188 9 is_stmt 1 view .LVU66
	.loc 1 188 14 is_stmt 0 view .LVU67
	vmovsd	Epot(%rip), %xmm1
	.loc 1 189 14 view .LVU68
	vmovsd	Pres(%rip), %xmm0
	.loc 1 195 16 view .LVU69
	addl	$10, %eax
	.loc 1 188 14 view .LVU70
	vaddsd	Etail(%rip), %xmm1, %xmm1
	.loc 1 189 14 view .LVU71
	vaddsd	Ptail(%rip), %xmm0, %xmm0
	.loc 1 195 16 view .LVU72
	movl	%eax, frames(%rip)
	imull	$652835029, %eax, %eax
	.loc 1 193 12 view .LVU73
	incl	mes(%rip)
	.loc 1 195 16 view .LVU74
	addl	$17179856, %eax
	rorx	$4, %eax, %eax
	.loc 1 188 14 view .LVU75
	vmovsd	%xmm1, Epot(%rip)
	.loc 1 189 9 is_stmt 1 view .LVU76
	.loc 1 189 14 is_stmt 0 view .LVU77
	vmovsd	%xmm0, Pres(%rip)
	.loc 1 191 9 is_stmt 1 view .LVU78
	.loc 1 191 15 is_stmt 0 view .LVU79
	vaddsd	epotm(%rip), %xmm1, %xmm1
	.loc 1 192 15 view .LVU80
	vaddsd	presm(%rip), %xmm0, %xmm0
	.loc 1 191 15 view .LVU81
	vmovsd	%xmm1, epotm(%rip)
	.loc 1 192 9 is_stmt 1 view .LVU82
	.loc 1 192 15 is_stmt 0 view .LVU83
	vmovsd	%xmm0, presm(%rip)
	.loc 1 193 9 is_stmt 1 view .LVU84
	.loc 1 195 9 view .LVU85
	.loc 1 196 9 view .LVU86
	.loc 1 196 12 is_stmt 0 view .LVU87
	cmpl	$2147482, %eax
	ja	.L21
	.loc 1 197 13 is_stmt 1 view .LVU88
	.loc 1 197 22 is_stmt 0 view .LVU89
	movl	$2, switcher(%rip)
	vzeroupper
.LVL14:
	jmp	.L3
.LVL15:
.L25:
	.loc 1 134 9 is_stmt 1 view .LVU90
	.loc 1 135 11 is_stmt 0 view .LVU91
	movq	.LC1(%rip), %rax
	.loc 1 134 13 view .LVU92
	vmovsd	.LC0(%rip), %xmm0
	.loc 1 142 9 view .LVU93
	leaq	Temp(%rip), %rbx
	.loc 1 141 9 view .LVU94
	movq	rxyz(%rip), %rdi
	.loc 1 135 11 view .LVU95
	movq	%rax, V(%rip)
	.loc 1 136 18 discriminator 1 view .LVU96
	movq	.LC2(%rip), %rax
	movq	%rax, box_size(%rip)
	.loc 1 138 15 view .LVU97
	movq	.LC3(%rip), %rax
	.loc 1 134 13 view .LVU98
	vmovsd	%xmm0, Rho(%rip)
	.loc 1 135 9 is_stmt 1 view .LVU99
	.loc 1 136 9 view .LVU100
	.loc 1 137 9 view .LVU101
	.loc 1 138 9 view .LVU102
	.loc 1 138 15 is_stmt 0 view .LVU103
	movq	%rax, Etail(%rip)
	.loc 1 139 9 is_stmt 1 view .LVU104
	.loc 1 139 15 is_stmt 0 view .LVU105
	movq	.LC4(%rip), %rax
	movq	%rax, Ptail(%rip)
	.loc 1 141 9 is_stmt 1 view .LVU106
	call	init_pos@PLT
.LVL16:
	.loc 1 142 9 view .LVU107
	movq	vxyz(%rip), %rdi
	leaq	Ekin(%rip), %rdx
	movq	%rbx, %rsi
	call	init_vel@PLT
.LVL17:
	.loc 1 143 9 view .LVU108
	vmovsd	box_size(%rip), %xmm2
	movq	%rbx, %r8
	leaq	Pres(%rip), %rcx
	vmovsd	V(%rip), %xmm1
	vmovsd	Rho(%rip), %xmm0
	leaq	Epot(%rip), %rdx
	movq	fxyz(%rip), %rsi
	movq	rxyz(%rip), %rdi
	call	forces@PLT
.LVL18:
	.loc 1 145 9 view .LVU109
	.loc 1 145 18 is_stmt 0 view .LVU110
	movl	$0, switcher(%rip)
	jmp	.L3
.LVL19:
.L21:
	.loc 1 145 18 view .LVU111
	vzeroupper
.LVL20:
	jmp	.L3
.LVL21:
.L26:
	.loc 1 149 9 is_stmt 1 view .LVU112
	vmovsd	presm(%rip), %xmm3
	vmovsd	epotm(%rip), %xmm2
	vxorps	%xmm0, %xmm0, %xmm0
	leaq	.LC5(%rip), %rdi
	.loc 1 150 24 is_stmt 0 view .LVU113
	vcvtsi2sdl	mes(%rip), %xmm0, %xmm0
	.loc 1 149 9 view .LVU114
	vmovsd	V(%rip), %xmm1
	movl	$4, %eax
	vdivsd	%xmm0, %xmm3, %xmm3
	vdivsd	%xmm0, %xmm2, %xmm2
	vmovsd	Rho(%rip), %xmm0
	call	printf@PLT
.LVL22:
	.loc 1 152 9 is_stmt 1 view .LVU115
	.loc 1 152 14 is_stmt 0 view .LVU116
	vmovsd	Rho(%rip), %xmm2
	.loc 1 153 9 is_stmt 1 view .LVU117
	.loc 1 153 19 is_stmt 0 view .LVU118
	vsubsd	.LC6(%rip), %xmm2, %xmm1
	.loc 1 156 26 view .LVU119
	vmovsd	.LC7(%rip), %xmm6
	.loc 1 153 19 view .LVU120
	vmovsd	%xmm2, -64(%rbp)
	.loc 1 156 26 view .LVU121
	vdivsd	%xmm1, %xmm6, %xmm0
	.loc 1 153 13 view .LVU122
	vmovsd	%xmm1, Rho(%rip)
	.loc 1 156 9 is_stmt 1 view .LVU123
	.loc 1 156 26 is_stmt 0 view .LVU124
	vmovsd	%xmm1, -56(%rbp)
	.loc 1 156 11 view .LVU125
	vmovsd	%xmm0, V(%rip)
	.loc 1 157 9 is_stmt 1 view .LVU126
	.loc 1 157 20 is_stmt 0 view .LVU127
	call	cbrt@PLT
.LVL23:
	.loc 1 158 79 view .LVU128
	vmovsd	-56(%rbp), %xmm1
	.loc 1 157 18 discriminator 1 view .LVU129
	vmovsd	%xmm0, box_size(%rip)
	.loc 1 158 9 is_stmt 1 view .LVU130
	.loc 1 158 79 is_stmt 0 view .LVU131
	vmulsd	.LC8(%rip), %xmm1, %xmm0
	.loc 1 159 9 is_stmt 1 view .LVU132
	.loc 1 162 14 is_stmt 0 view .LVU133
	vmovsd	-64(%rbp), %xmm2
	.loc 1 159 22 view .LVU134
	vmulsd	.LC7(%rip), %xmm0, %xmm3
	.loc 1 160 22 view .LVU135
	vmulsd	%xmm0, %xmm1, %xmm0
	.loc 1 160 15 view .LVU136
	vmovsd	%xmm0, Ptail(%rip)
	.loc 1 162 14 view .LVU137
	vdivsd	%xmm1, %xmm2, %xmm0
	.loc 1 159 15 view .LVU138
	vmovsd	%xmm3, Etail(%rip)
	.loc 1 160 9 is_stmt 1 view .LVU139
	.loc 1 162 9 view .LVU140
	.loc 1 162 14 is_stmt 0 view .LVU141
	call	cbrt@PLT
.LVL24:
	.loc 1 163 9 is_stmt 1 view .LVU142
.LBB10:
	.loc 1 163 14 view .LVU143
	.loc 1 163 27 discriminator 1 view .LVU144
	movq	rxyz(%rip), %rax
	vbroadcastsd	%xmm0, %ymm1
	leaq	32928(%rax), %rdx
.LVL25:
	.loc 1 163 27 is_stmt 0 discriminator 1 view .LVU145
	.p2align 5
	.p2align 4
	.p2align 3
.L5:
	.loc 1 164 13 is_stmt 1 view .LVU146
	.loc 1 164 21 is_stmt 0 view .LVU147
	vmulpd	(%rax), %ymm1, %ymm0
	addq	$32, %rax
	vmovupd	%ymm0, -32(%rax)
	.loc 1 163 40 is_stmt 1 discriminator 3 view .LVU148
	.loc 1 163 27 discriminator 1 view .LVU149
	cmpq	%rdx, %rax
	jne	.L5
.LBE10:
	.loc 1 166 9 view .LVU150
	movq	vxyz(%rip), %rdi
	leaq	Temp(%rip), %rbx
	leaq	Ekin(%rip), %rdx
	vzeroupper
.LVL26:
	movq	%rbx, %rsi
	call	init_vel@PLT
.LVL27:
	.loc 1 167 9 view .LVU151
	vmovsd	V(%rip), %xmm1
	movq	%rbx, %r8
	leaq	Pres(%rip), %rcx
	vmovsd	Rho(%rip), %xmm0
	vmovsd	box_size(%rip), %xmm2
	leaq	Epot(%rip), %rdx
	movq	fxyz(%rip), %rsi
	movq	rxyz(%rip), %rdi
	call	forces@PLT
.LVL28:
	.loc 1 169 9 view .LVU152
	.loc 1 170 22 is_stmt 0 view .LVU153
	vmovsd	Rho(%rip), %xmm0
	.loc 1 169 18 view .LVU154
	movl	$0, switcher(%rip)
	.loc 1 170 9 is_stmt 1 view .LVU155
	.loc 1 170 22 is_stmt 0 view .LVU156
	vsubsd	.LC9(%rip), %xmm0, %xmm0
	.loc 1 170 12 view .LVU157
	vmovsd	.LC11(%rip), %xmm1
	.loc 1 170 13 view .LVU158
	vandpd	.LC10(%rip), %xmm0, %xmm0
	.loc 1 170 12 view .LVU159
	vcomisd	%xmm0, %xmm1
	jbe	.L3
	.loc 1 171 13 is_stmt 1 view .LVU160
	movl	$10, %edi
	call	putchar@PLT
.LVL29:
	.loc 1 172 13 view .LVU161
	.loc 1 172 22 is_stmt 0 view .LVU162
	movl	$3, switcher(%rip)
	jmp	.L3
	.cfi_endproc
.LFE15:
	.size	idle_func, .-idle_func
	.p2align 4
	.type	pre_display, @function
pre_display:
.LFB12:
	.loc 1 24 1 is_stmt 1 view -0
	.cfi_startproc
	.loc 1 25 5 view .LVU164
	.loc 1 24 1 is_stmt 0 view .LVU165
	subq	$8, %rsp
	.cfi_def_cfa_offset 16
	.loc 1 25 5 view .LVU166
	movl	$5889, %edi
	call	glMatrixMode@PLT
.LVL30:
	.loc 1 26 5 is_stmt 1 view .LVU167
	call	glLoadIdentity@PLT
.LVL31:
	.loc 1 28 5 view .LVU168
	vxorpd	%xmm3, %xmm3, %xmm3
	vmovsd	.LC14(%rip), %xmm1
	vmovsd	.LC15(%rip), %xmm0
	vmovapd	%xmm1, %xmm2
	call	gluPerspective@PLT
.LVL32:
	.loc 1 29 5 view .LVU169
	vmovsd	.LC14(%rip), %xmm1
	subq	$8, %rsp
	.cfi_def_cfa_offset 24
	vxorpd	%xmm7, %xmm7, %xmm7
	vmovsd	.LC16(%rip), %xmm3
	pushq	$0
	.cfi_def_cfa_offset 32
	vmovapd	%xmm1, %xmm6
	vmovapd	%xmm1, %xmm2
	vmovapd	%xmm1, %xmm0
	vmovapd	%xmm3, %xmm5
	vmovapd	%xmm3, %xmm4
	call	gluLookAt@PLT
.LVL33:
	.loc 1 31 5 view .LVU170
	movl	$5888, %edi
	call	glMatrixMode@PLT
.LVL34:
	.loc 1 32 5 view .LVU171
	call	glLoadIdentity@PLT
.LVL35:
	.loc 1 34 5 view .LVU172
	vxorps	%xmm2, %xmm2, %xmm2
	vmovss	.LC17(%rip), %xmm3
	vmovaps	%xmm2, %xmm1
	vmovaps	%xmm2, %xmm0
	call	glClearColor@PLT
.LVL36:
	.loc 1 35 5 view .LVU173
	movl	$16384, %edi
	.loc 1 36 1 is_stmt 0 view .LVU174
	addq	$24, %rsp
	.cfi_def_cfa_offset 8
	.loc 1 35 5 view .LVU175
	jmp	glClear@PLT
.LVL37:
	.cfi_endproc
.LFE12:
	.size	pre_display, .-pre_display
	.p2align 4
	.type	display_func, @function
display_func:
.LFB16:
	.loc 1 227 1 is_stmt 1 view -0
	.cfi_startproc
	.loc 1 228 5 view .LVU177
	.loc 1 227 1 is_stmt 0 view .LVU178
	pushq	%r13
	.cfi_def_cfa_offset 16
	.cfi_offset 13, -16
	pushq	%r12
	.cfi_def_cfa_offset 24
	.cfi_offset 12, -24
	pushq	%rbp
	.cfi_def_cfa_offset 32
	.cfi_offset 6, -32
	pushq	%rbx
	.cfi_def_cfa_offset 40
	.cfi_offset 3, -40
	subq	$8, %rsp
	.cfi_def_cfa_offset 48
	.loc 1 228 5 view .LVU179
	call	pre_display
.LVL38:
	.loc 1 229 5 is_stmt 1 view .LVU180
.LBB15:
.LBI15:
	.loc 1 45 13 view .LVU181
.LBB16:
	.loc 1 47 5 view .LVU182
	.loc 1 49 5 view .LVU183
	.loc 1 52 5 view .LVU184
	movl	$1, %edi
	call	glBegin@PLT
.LVL39:
	.loc 1 54 5 view .LVU185
	.loc 1 54 12 is_stmt 0 view .LVU186
	vmovsd	.LC19(%rip), %xmm3
	.loc 1 55 5 view .LVU187
	vxorpd	%xmm1, %xmm1, %xmm1
	.loc 1 54 12 view .LVU188
	vmulsd	box_size(%rip), %xmm3, %xmm7
	.loc 1 55 5 view .LVU189
	vmovsd	.LC14(%rip), %xmm2
	vmovapd	%xmm1, %xmm0
	.loc 1 54 12 view .LVU190
	vmovq	%xmm7, %rbx
.LVL40:
	.loc 1 55 5 is_stmt 1 view .LVU191
	call	glColor3d@PLT
.LVL41:
	.loc 1 57 5 view .LVU192
	vxorpd	%xmm2, %xmm2, %xmm2
	vmovapd	%xmm2, %xmm1
	vmovapd	%xmm2, %xmm0
	call	glVertex3d@PLT
.LVL42:
	.loc 1 58 5 view .LVU193
	vxorpd	%xmm1, %xmm1, %xmm1
	vmovq	%rbx, %xmm2
	vmovapd	%xmm1, %xmm0
	call	glVertex3d@PLT
.LVL43:
	.loc 1 60 5 view .LVU194
	vxorpd	%xmm2, %xmm2, %xmm2
	vmovapd	%xmm2, %xmm1
	vmovapd	%xmm2, %xmm0
	call	glVertex3d@PLT
.LVL44:
	.loc 1 61 5 view .LVU195
	vxorpd	%xmm2, %xmm2, %xmm2
	vmovq	%rbx, %xmm1
	vmovapd	%xmm2, %xmm0
	call	glVertex3d@PLT
.LVL45:
	.loc 1 63 5 view .LVU196
	vxorpd	%xmm2, %xmm2, %xmm2
	vmovapd	%xmm2, %xmm1
	vmovapd	%xmm2, %xmm0
	call	glVertex3d@PLT
.LVL46:
	.loc 1 64 5 view .LVU197
	vxorpd	%xmm2, %xmm2, %xmm2
	vmovq	%rbx, %xmm0
	vmovapd	%xmm2, %xmm1
	call	glVertex3d@PLT
.LVL47:
	.loc 1 66 5 view .LVU198
	vmovq	%rbx, %xmm2
	vmovq	%rbx, %xmm1
	vmovq	%rbx, %xmm0
	call	glVertex3d@PLT
.LVL48:
	.loc 1 67 5 view .LVU199
	vmovq	%rbx, %xmm1
	vmovq	%rbx, %xmm0
	vxorpd	%xmm2, %xmm2, %xmm2
	call	glVertex3d@PLT
.LVL49:
	.loc 1 69 5 view .LVU200
	vmovq	%rbx, %xmm2
	vmovq	%rbx, %xmm1
	vmovq	%rbx, %xmm0
	call	glVertex3d@PLT
.LVL50:
	.loc 1 70 5 view .LVU201
	vmovq	%rbx, %xmm2
	vmovq	%rbx, %xmm0
	vxorpd	%xmm1, %xmm1, %xmm1
	call	glVertex3d@PLT
.LVL51:
	.loc 1 72 5 view .LVU202
	vmovq	%rbx, %xmm2
	vmovq	%rbx, %xmm1
	vmovq	%rbx, %xmm0
	call	glVertex3d@PLT
.LVL52:
	.loc 1 73 5 view .LVU203
	vmovq	%rbx, %xmm2
	vmovq	%rbx, %xmm1
	vxorpd	%xmm0, %xmm0, %xmm0
	call	glVertex3d@PLT
.LVL53:
	.loc 1 75 5 view .LVU204
	vxorpd	%xmm2, %xmm2, %xmm2
	vmovq	%rbx, %xmm1
	vmovapd	%xmm2, %xmm0
	call	glVertex3d@PLT
.LVL54:
	.loc 1 76 5 view .LVU205
	vmovq	%rbx, %xmm1
	vmovq	%rbx, %xmm0
	vxorpd	%xmm2, %xmm2, %xmm2
	call	glVertex3d@PLT
.LVL55:
	.loc 1 78 5 view .LVU206
	vmovq	%rbx, %xmm2
	vmovq	%rbx, %xmm1
	vxorpd	%xmm0, %xmm0, %xmm0
	call	glVertex3d@PLT
.LVL56:
	.loc 1 79 5 view .LVU207
	vxorpd	%xmm1, %xmm1, %xmm1
	vmovq	%rbx, %xmm2
	vmovapd	%xmm1, %xmm0
	call	glVertex3d@PLT
.LVL57:
	.loc 1 81 5 view .LVU208
	vmovq	%rbx, %xmm2
	vmovq	%rbx, %xmm0
	vxorpd	%xmm1, %xmm1, %xmm1
	call	glVertex3d@PLT
.LVL58:
	.loc 1 82 5 view .LVU209
	vxorpd	%xmm2, %xmm2, %xmm2
	vmovq	%rbx, %xmm0
	vmovapd	%xmm2, %xmm1
	call	glVertex3d@PLT
.LVL59:
	.loc 1 84 5 view .LVU210
	vmovq	%rbx, %xmm2
	vmovq	%rbx, %xmm0
	vxorpd	%xmm1, %xmm1, %xmm1
	call	glVertex3d@PLT
.LVL60:
	.loc 1 85 5 view .LVU211
	vxorpd	%xmm1, %xmm1, %xmm1
	vmovq	%rbx, %xmm2
	vmovapd	%xmm1, %xmm0
	call	glVertex3d@PLT
.LVL61:
	.loc 1 87 5 view .LVU212
	vmovq	%rbx, %xmm2
	vmovq	%rbx, %xmm1
	vxorpd	%xmm0, %xmm0, %xmm0
	call	glVertex3d@PLT
.LVL62:
	.loc 1 88 5 view .LVU213
	vxorpd	%xmm2, %xmm2, %xmm2
	vmovq	%rbx, %xmm1
	vmovapd	%xmm2, %xmm0
	call	glVertex3d@PLT
.LVL63:
	.loc 1 90 5 view .LVU214
	vmovq	%rbx, %xmm1
	vmovq	%rbx, %xmm0
	vxorpd	%xmm2, %xmm2, %xmm2
	call	glVertex3d@PLT
.LVL64:
	.loc 1 91 5 view .LVU215
	vxorpd	%xmm2, %xmm2, %xmm2
	vmovq	%rbx, %xmm0
	.loc 1 98 5 is_stmt 0 view .LVU216
	xorl	%ebx, %ebx
.LVL65:
	.loc 1 91 5 view .LVU217
	vmovapd	%xmm2, %xmm1
	call	glVertex3d@PLT
.LVL66:
	.loc 1 93 5 is_stmt 1 view .LVU218
	call	glEnd@PLT
.LVL67:
	.loc 1 98 5 view .LVU219
	xorl	%edi, %edi
	call	glBegin@PLT
.LVL68:
	.loc 1 100 5 view .LVU220
	.loc 1 102 5 view .LVU221
	.loc 1 103 5 view .LVU222
	.loc 1 104 5 view .LVU223
	.loc 1 106 5 view .LVU224
	.loc 1 106 21 discriminator 1 view .LVU225
	.loc 1 98 5 is_stmt 0 view .LVU226
	vmovsd	.LC19(%rip), %xmm3
.LVL69:
	.p2align 4
	.p2align 3
.L33:
	.loc 1 107 9 is_stmt 1 view .LVU227
	.loc 1 107 19 is_stmt 0 view .LVU228
	movq	rxyz(%rip), %rax
	.loc 1 111 9 view .LVU229
	vmovsd	.LC14(%rip), %xmm1
	vxorpd	%xmm2, %xmm2, %xmm2
	vmovapd	%xmm2, %xmm0
	.loc 1 107 12 view .LVU230
	vmulsd	(%rax,%rbx), %xmm3, %xmm4
	.loc 1 108 12 view .LVU231
	vmulsd	8(%rax,%rbx), %xmm3, %xmm5
	.loc 1 109 12 view .LVU232
	vmulsd	16(%rax,%rbx), %xmm3, %xmm6
	.loc 1 106 21 discriminator 1 view .LVU233
	addq	$24, %rbx
.LVL70:
	.loc 1 107 12 view .LVU234
	vmovq	%xmm4, %rbp
.LVL71:
	.loc 1 108 9 is_stmt 1 view .LVU235
	.loc 1 108 12 is_stmt 0 view .LVU236
	vmovq	%xmm5, %r12
.LVL72:
	.loc 1 109 9 is_stmt 1 view .LVU237
	.loc 1 109 12 is_stmt 0 view .LVU238
	vmovq	%xmm6, %r13
.LVL73:
	.loc 1 111 9 is_stmt 1 view .LVU239
	call	glColor3d@PLT
.LVL74:
	.loc 1 112 9 view .LVU240
	vmovq	%r12, %xmm1
	vmovq	%rbp, %xmm0
	vmovq	%r13, %xmm2
	call	glVertex3d@PLT
.LVL75:
	.loc 1 106 36 discriminator 3 view .LVU241
	.loc 1 106 21 discriminator 1 view .LVU242
	cmpq	$32928, %rbx
	vmovsd	.LC19(%rip), %xmm3
	jne	.L33
	.loc 1 115 5 view .LVU243
	call	glEnd@PLT
.LVL76:
	.loc 1 115 5 is_stmt 0 view .LVU244
.LBE16:
.LBE15:
	.loc 1 230 5 is_stmt 1 view .LVU245
.LBB17:
.LBI17:
	.loc 1 39 13 view .LVU246
.LBB18:
	.loc 1 41 5 view .LVU247
.LBE18:
.LBE17:
	.loc 1 231 1 is_stmt 0 view .LVU248
	addq	$8, %rsp
	.cfi_def_cfa_offset 40
	popq	%rbx
	.cfi_def_cfa_offset 32
	popq	%rbp
	.cfi_def_cfa_offset 24
	popq	%r12
	.cfi_def_cfa_offset 16
	popq	%r13
	.cfi_def_cfa_offset 8
.LBB20:
.LBB19:
	.loc 1 41 5 view .LVU249
	jmp	glutSwapBuffers@PLT
.LVL77:
.LBE19:
.LBE20:
	.cfi_endproc
.LFE16:
	.size	display_func, .-display_func
	.section	.rodata.str1.8,"aMS",@progbits,1
	.align 8
.LC20:
	.string	"# N\303\272mero de part\303\255culas:      %d\n"
	.align 8
.LC21:
	.string	"# Temperatura de referencia: %.2f\n"
	.align 8
.LC22:
	.string	"# Pasos de equilibraci\303\263n:    %d\n"
	.align 8
.LC23:
	.string	"# Pasos de medici\303\263n:         %d\n"
	.section	.rodata.str1.1
.LC24:
	.string	"# (mediciones cada %d pasos)\n"
	.section	.rodata.str1.8
	.align 8
.LC25:
	.string	"tiny molecular dynamics | visualization"
	.section	.text.startup,"ax",@progbits
	.p2align 4
	.globl	main
	.type	main, @function
main:
.LVL78:
.LFB18:
	.loc 1 263 1 is_stmt 1 view -0
	.cfi_startproc
	.loc 1 265 5 view .LVU251
	.loc 1 263 1 is_stmt 0 view .LVU252
	pushq	%rbx
	.cfi_def_cfa_offset 16
	.cfi_offset 3, -16
	subq	$16, %rsp
	.cfi_def_cfa_offset 32
	.loc 1 263 1 view .LVU253
	movl	%edi, 12(%rsp)
	.loc 1 265 5 view .LVU254
	leaq	12(%rsp), %rdi
.LVL79:
	.loc 1 265 5 view .LVU255
	call	glutInit@PLT
.LVL80:
	.loc 1 267 5 is_stmt 1 view .LVU256
	.loc 1 267 21 is_stmt 0 view .LVU257
	movl	$32928, %edi
	call	malloc@PLT
.LVL81:
	.loc 1 268 21 view .LVU258
	movl	$32928, %edi
	.loc 1 267 21 view .LVU259
	movq	%rax, %rbx
	.loc 1 267 10 discriminator 1 view .LVU260
	movq	%rax, rxyz(%rip)
	.loc 1 268 5 is_stmt 1 view .LVU261
	.loc 1 268 21 is_stmt 0 view .LVU262
	call	malloc@PLT
.LVL82:
	.loc 1 269 21 view .LVU263
	movl	$32928, %edi
	.loc 1 268 10 discriminator 1 view .LVU264
	movq	%rax, vxyz(%rip)
	.loc 1 269 5 is_stmt 1 view .LVU265
	.loc 1 269 21 is_stmt 0 view .LVU266
	call	malloc@PLT
.LVL83:
	.loc 1 273 12 view .LVU267
	xorl	%edi, %edi
	.loc 1 269 10 discriminator 1 view .LVU268
	movq	%rax, fxyz(%rip)
	.loc 1 273 5 is_stmt 1 view .LVU269
	.loc 1 273 12 is_stmt 0 view .LVU270
	call	time@PLT
.LVL84:
	.loc 1 273 5 discriminator 1 view .LVU271
	movl	%eax, %edi
	call	srand@PLT
.LVL85:
	.loc 1 274 5 is_stmt 1 view .LVU272
	.loc 1 276 7 is_stmt 0 view .LVU273
	movq	.LC1(%rip), %rax
	.loc 1 282 5 view .LVU274
	movq	%rbx, %rdi
	.loc 1 283 5 view .LVU275
	leaq	Temp(%rip), %rbx
	.loc 1 274 9 view .LVU276
	vmovsd	.LC0(%rip), %xmm0
	.loc 1 276 7 view .LVU277
	movq	%rax, V(%rip)
	.loc 1 277 14 discriminator 1 view .LVU278
	movq	.LC2(%rip), %rax
	movq	%rax, box_size(%rip)
	.loc 1 279 11 view .LVU279
	movq	.LC3(%rip), %rax
	.loc 1 274 9 view .LVU280
	vmovsd	%xmm0, Rho(%rip)
	.loc 1 275 5 is_stmt 1 view .LVU281
	.loc 1 276 5 view .LVU282
	.loc 1 277 5 view .LVU283
	.loc 1 278 5 view .LVU284
	.loc 1 279 5 view .LVU285
	.loc 1 279 11 is_stmt 0 view .LVU286
	movq	%rax, Etail(%rip)
	.loc 1 280 5 is_stmt 1 view .LVU287
	.loc 1 280 11 is_stmt 0 view .LVU288
	movq	.LC4(%rip), %rax
	movq	%rax, Ptail(%rip)
	.loc 1 282 5 is_stmt 1 view .LVU289
	call	init_pos@PLT
.LVL86:
	.loc 1 283 5 view .LVU290
	movq	vxyz(%rip), %rdi
	leaq	Ekin(%rip), %rdx
	movq	%rbx, %rsi
	call	init_vel@PLT
.LVL87:
	.loc 1 284 5 view .LVU291
	vmovsd	box_size(%rip), %xmm2
	movq	%rbx, %r8
	leaq	Pres(%rip), %rcx
	vmovsd	V(%rip), %xmm1
	vmovsd	Rho(%rip), %xmm0
	leaq	Epot(%rip), %rdx
	movq	fxyz(%rip), %rsi
	movq	rxyz(%rip), %rdi
	call	forces@PLT
.LVL88:
	.loc 1 288 5 view .LVU292
	movl	$1372, %esi
	leaq	.LC20(%rip), %rdi
	xorl	%eax, %eax
	call	printf@PLT
.LVL89:
	.loc 1 289 5 view .LVU293
	vmovsd	.LC12(%rip), %xmm0
	leaq	.LC21(%rip), %rdi
	movl	$1, %eax
	call	printf@PLT
.LVL90:
	.loc 1 290 5 view .LVU294
	movl	$500, %esi
	leaq	.LC22(%rip), %rdi
	xorl	%eax, %eax
	call	printf@PLT
.LVL91:
	.loc 1 291 5 view .LVU295
	movl	$1500, %esi
	leaq	.LC23(%rip), %rdi
	xorl	%eax, %eax
	call	printf@PLT
.LVL92:
	.loc 1 292 5 view .LVU296
	movl	$10, %esi
	leaq	.LC24(%rip), %rdi
	xorl	%eax, %eax
	call	printf@PLT
.LVL93:
	.loc 1 294 5 view .LVU297
.LBB23:
.LBI23:
	.loc 1 234 13 view .LVU298
.LBB24:
	.loc 1 236 5 view .LVU299
	movl	$2, %edi
	call	glutInitDisplayMode@PLT
.LVL94:
	.loc 1 238 5 view .LVU300
	xorl	%esi, %esi
	xorl	%edi, %edi
	call	glutInitWindowPosition@PLT
.LVL95:
	.loc 1 239 5 view .LVU301
	movl	$900, %esi
	movl	$900, %edi
	call	glutInitWindowSize@PLT
.LVL96:
	.loc 1 240 5 view .LVU302
	.loc 1 240 14 is_stmt 0 view .LVU303
	leaq	.LC25(%rip), %rdi
	call	glutCreateWindow@PLT
.LVL97:
	.loc 1 242 5 view .LVU304
	vmovss	.LC17(%rip), %xmm3
	vxorps	%xmm2, %xmm2, %xmm2
	vmovaps	%xmm2, %xmm1
	vmovaps	%xmm2, %xmm0
	.loc 1 240 12 discriminator 1 view .LVU305
	movl	%eax, win_id(%rip)
	.loc 1 242 5 is_stmt 1 view .LVU306
	call	glClearColor@PLT
.LVL98:
	.loc 1 243 5 view .LVU307
	movl	$16384, %edi
	call	glClear@PLT
.LVL99:
	.loc 1 244 5 view .LVU308
	call	glutSwapBuffers@PLT
.LVL100:
	.loc 1 245 5 view .LVU309
	movl	$16384, %edi
	call	glClear@PLT
.LVL101:
	.loc 1 246 5 view .LVU310
	call	glutSwapBuffers@PLT
.LVL102:
	.loc 1 248 5 view .LVU311
	call	pre_display
.LVL103:
	.loc 1 255 5 view .LVU312
	leaq	idle_func(%rip), %rdi
	call	glutIdleFunc@PLT
.LVL104:
	.loc 1 256 5 view .LVU313
	leaq	display_func(%rip), %rdi
	call	glutDisplayFunc@PLT
.LVL105:
.LBE24:
.LBE23:
	.loc 1 296 5 view .LVU314
	call	glutMainLoop@PLT
.LVL106:
	.loc 1 299 5 view .LVU315
	movq	rxyz(%rip), %rdi
	call	free@PLT
.LVL107:
	.loc 1 300 5 view .LVU316
	movq	fxyz(%rip), %rdi
	call	free@PLT
.LVL108:
	.loc 1 301 5 view .LVU317
	movq	vxyz(%rip), %rdi
	call	free@PLT
.LVL109:
	.loc 1 303 5 view .LVU318
	xorl	%edi, %edi
	call	exit@PLT
.LVL110:
	.cfi_endproc
.LFE18:
	.size	main, .-main
	.local	win_id
	.comm	win_id,4,4
	.local	mes
	.comm	mes,4,4
	.local	frames
	.comm	frames,4,4
	.local	switcher
	.comm	switcher,4,4
	.local	presm
	.comm	presm,8,8
	.local	epotm
	.comm	epotm,8,8
	.local	fxyz
	.comm	fxyz,8,8
	.local	vxyz
	.comm	vxyz,8,8
	.local	rxyz
	.comm	rxyz,8,8
	.local	Ptail
	.comm	Ptail,8,8
	.local	Etail
	.comm	Etail,8,8
	.local	box_size
	.comm	box_size,8,8
	.local	V
	.comm	V,8,8
	.local	Rho
	.comm	Rho,8,8
	.local	Pres
	.comm	Pres,8,8
	.local	Temp
	.comm	Temp,8,8
	.local	Epot
	.comm	Epot,8,8
	.local	Ekin
	.comm	Ekin,8,8
	.section	.rodata.cst8,"aM",@progbits,8
	.align 8
.LC0:
	.long	858993459
	.long	1072902963
	.align 8
.LC1:
	.long	1431655766
	.long	1083301205
	.align 8
.LC2:
	.long	-314126485
	.long	1076160968
	.align 8
.LC3:
	.long	-1842697066
	.long	-1063550297
	.align 8
.LC4:
	.long	540940927
	.long	-1074224233
	.align 8
.LC6:
	.long	-1717986918
	.long	1069128089
	.align 8
.LC7:
	.long	0
	.long	1083535360
	.align 8
.LC8:
	.long	1688004540
	.long	-1074717627
	.align 8
.LC9:
	.long	1288490188
	.long	1070805811
	.section	.rodata.cst16,"aM",@progbits,16
	.align 16
.LC10:
	.long	-1
	.long	2147483647
	.long	0
	.long	0
	.section	.rodata.cst8
	.align 8
.LC11:
	.long	-1598689907
	.long	1051772663
	.align 8
.LC12:
	.long	0
	.long	1073741824
	.align 8
.LC14:
	.long	0
	.long	1072693248
	.align 8
.LC15:
	.long	0
	.long	1078362112
	.align 8
.LC16:
	.long	0
	.long	1071644672
	.section	.rodata.cst4,"aM",@progbits,4
	.align 4
.LC17:
	.long	1065353216
	.section	.rodata.cst8
	.align 8
.LC19:
	.long	-1936127716
	.long	1067514262
	.text
.Letext0:
	.file 2 "/usr/include/x86_64-linux-gnu/bits/types.h"
	.file 3 "/usr/include/x86_64-linux-gnu/bits/types/time_t.h"
	.file 4 "/usr/include/GL/gl.h"
	.file 5 "/usr/include/GL/glu.h"
	.file 6 "/usr/include/GL/freeglut_std.h"
	.file 7 "core.h"
	.file 8 "/usr/include/x86_64-linux-gnu/bits/mathcalls.h"
	.file 9 "/usr/include/stdlib.h"
	.file 10 "/usr/include/stdio.h"
	.file 11 "/usr/include/time.h"
	.file 12 "<built-in>"
	.section	.note.GNU-stack,"",@progbits
