	.file	"core.c"
	.text
.Ltext0:
	.file 0 "/users/cp2025/cp2025_093/lab3/beta" "core.c"
	.p2align 4
	.type	forces._omp_fn.0, @function
forces._omp_fn.0:
.LVL0:
.LFB6573:
	.file 1 "core.c"
	.loc 1 114 9 view -0
	.cfi_startproc
	.loc 1 114 9 is_stmt 0 view .LVU1
	pushq	%rbp
	.cfi_def_cfa_offset 16
	.cfi_offset 6, -16
	.loc 1 114 9 discriminator 2 view .LVU2
	xorl	%esi, %esi
	movl	$32928, %edx
	.loc 1 114 9 view .LVU3
	movq	%rsp, %rbp
	.cfi_def_cfa_register 6
	pushq	%r15
	pushq	%r14
	pushq	%r13
	pushq	%r12
	pushq	%rbx
	.cfi_offset 15, -24
	.cfi_offset 14, -32
	.cfi_offset 13, -40
	.cfi_offset 12, -48
	.cfi_offset 3, -56
	movq	%rdi, %r12
	andq	$-32, %rsp
	subq	$33184, %rsp
	.loc 1 114 9 discriminator 1 view .LVU4
	vmovsd	56(%rdi), %xmm9
	vmovapd	(%rdi), %ymm6
	movq	32(%rdi), %rcx
	movq	40(%rdi), %rax
	.loc 1 114 9 discriminator 2 view .LVU5
	leaq	256(%rsp), %r14
	.loc 1 114 9 discriminator 1 view .LVU6
	movq	48(%rdi), %r15
	.loc 1 114 9 discriminator 2 view .LVU7
	movq	%r14, %rdi
.LVL1:
	.loc 1 114 9 discriminator 1 view .LVU8
	movq	%rcx, 144(%rsp)
	movq	%rax, 128(%rsp)
	vmovsd	%xmm9, 64(%rsp)
.LVL2:
	.loc 1 114 9 discriminator 1 view .LVU9
	vmovapd	%ymm6, 96(%rsp)
.LVL3:
	.loc 1 114 9 discriminator 2 view .LVU10
	vzeroupper
.LVL4:
	call	memset@PLT
.LVL5:
.LBB176:
.LBB177:
	.loc 1 115 10 is_stmt 1 view .LVU11
	call	omp_get_num_threads@PLT
.LVL6:
	movl	%eax, %ebx
	call	omp_get_thread_num@PLT
.LVL7:
	xorl	%edx, %edx
	vmovapd	96(%rsp), %ymm6
	movl	%eax, %esi
	movl	$1371, %eax
	vmovsd	64(%rsp), %xmm9
	movq	144(%rsp), %rcx
	idivl	%ebx
	cmpl	%edx, %esi
	jl	.L2
.L17:
	imull	%eax, %esi
	addl	%esi, %edx
	addl	%edx, %eax
	cmpl	%eax, %edx
	jge	.L18
.LBB178:
.LBB179:
.LBB180:
.LBB181:
.LBB182:
.LBB183:
.LBB184:
	.file 2 "/usr/lib/gcc/x86_64-linux-gnu/14/include/avxintrin.h"
	.loc 2 314 10 is_stmt 0 view .LVU12
	vbroadcastsd	.LC2(%rip), %ymm0
.LBE184:
.LBE183:
.LBE182:
.LBE181:
.LBB216:
.LBB217:
.LBB218:
	.loc 1 143 28 view .LVU13
	vmovsd	.LC5(%rip), %xmm7
	.loc 1 146 28 view .LVU14
	movq	%r15, %r13
	leal	1(%rdx), %esi
	movq	128(%rsp), %r15
.LVL8:
	.loc 1 146 28 view .LVU15
	movslq	%esi, %rdi
.LBE218:
.LBE217:
.LBE216:
.LBE180:
.LBE179:
.LBE178:
.LBE177:
.LBE176:
	.loc 1 114 9 discriminator 1 view .LVU16
	vxorpd	%xmm11, %xmm11, %xmm11
	leal	(%rax,%rax,2), %eax
.LBB367:
.LBB365:
.LBB363:
.LBB308:
.LBB303:
.LBB229:
.LBB224:
.LBB219:
	.loc 1 146 28 view .LVU17
	vmovapd	%xmm9, %xmm12
	leal	(%rdx,%rdx,2), %esi
	movl	%eax, 36(%rsp)
.LBE219:
.LBE224:
.LBE229:
.LBE303:
.LBE308:
.LBE363:
.LBE365:
.LBE367:
	.loc 1 114 9 discriminator 1 view .LVU18
	vmovapd	%xmm11, %xmm10
.LBB368:
.LBB366:
.LBB364:
.LBB309:
.LBB304:
.LBB230:
.LBB225:
.LBB220:
	.loc 1 146 28 view .LVU19
	movq	%rdi, 136(%rsp)
	vmovapd	%xmm11, %xmm9
	movq	%r12, 24(%rsp)
.LBE220:
.LBE225:
.LBE230:
.LBB231:
.LBB213:
.LBB187:
.LBB185:
	.loc 2 314 10 view .LVU20
	vmulpd	%ymm0, %ymm6, %ymm1
.LBE185:
.LBE187:
.LBB188:
.LBB189:
	.loc 2 362 10 view .LVU21
	vbroadcastsd	.LC4(%rip), %ymm0
	vxorpd	%ymm0, %ymm1, %ymm14
.LVL9:
	.p2align 4
	.p2align 3
.L6:
	.loc 2 362 10 view .LVU22
.LBE189:
.LBE188:
.LBE213:
.LBE231:
.LBE304:
.LBE309:
	.loc 1 117 9 is_stmt 1 view .LVU23
	.loc 1 117 22 is_stmt 0 view .LVU24
	movq	136(%rsp), %rdi
.LBB310:
	.loc 1 121 38 discriminator 1 view .LVU25
	movl	$1372, %edx
.LBE310:
	.loc 1 117 22 view .LVU26
	vmovsd	-8(%rcx,%rdi,8), %xmm5
.LVL10:
.LBB311:
.LBI311:
	.loc 2 1320 1 is_stmt 1 view .LVU27
.LBB312:
	.loc 2 1322 3 view .LVU28
.LBE312:
.LBE311:
	.loc 1 118 22 is_stmt 0 view .LVU29
	vmovsd	-8(%r15,%rdi,8), %xmm4
.LBB314:
	.loc 1 121 38 discriminator 1 view .LVU30
	subl	%edi, %edx
.LBE314:
	.loc 1 117 22 view .LVU31
	movq	%rdi, %rax
	.loc 1 119 22 view .LVU32
	vmovsd	-8(%r13,%rdi,8), %xmm2
.LBB315:
.LBB313:
	.loc 2 1322 10 view .LVU33
	vbroadcastsd	%xmm5, %ymm0
.LVL11:
	.loc 2 1322 10 view .LVU34
.LBE313:
.LBE315:
	.loc 1 118 9 is_stmt 1 view .LVU35
.LBB316:
.LBI316:
	.loc 2 1320 1 view .LVU36
.LBB317:
	.loc 2 1322 3 view .LVU37
	.loc 2 1322 10 is_stmt 0 view .LVU38
	vbroadcastsd	%xmm4, %ymm13
.LVL12:
	.loc 2 1322 10 view .LVU39
.LBE317:
.LBE316:
	.loc 1 119 9 is_stmt 1 view .LVU40
.LBB318:
.LBI318:
	.loc 2 1320 1 view .LVU41
.LBB319:
	.loc 2 1322 3 view .LVU42
	.loc 2 1322 10 is_stmt 0 view .LVU43
	vbroadcastsd	%xmm2, %ymm15
.LVL13:
	.loc 2 1322 10 view .LVU44
.LBE319:
.LBE318:
	.loc 1 120 9 is_stmt 1 view .LVU45
	.loc 1 121 9 view .LVU46
.LBB320:
	.loc 1 121 14 view .LVU47
	.loc 1 121 38 discriminator 1 view .LVU48
	cmpl	$2, %edx
	jle	.L15
	movslq	136(%rsp), %rdx
.LBB305:
.LBB232:
.LBB226:
.LBB221:
	.loc 1 148 25 is_stmt 0 view .LVU49
	movslq	%esi, %rax
	movq	%r15, 144(%rsp)
	leaq	160(%rsp), %r10
	salq	$3, %rax
	leaq	192(%rsp), %r9
	leaq	224(%rsp), %r8
	movl	%esi, 128(%rsp)
	leaq	(%r14,%rax), %r12
	.loc 1 149 25 view .LVU50
	leaq	8(%r14,%rax), %rbx
	.loc 1 150 25 view .LVU51
	leaq	16(%r14,%rax), %r11
	movq	%rcx, 96(%rsp)
	vmovsd	%xmm5, 56(%rsp)
	vmovsd	%xmm4, 48(%rsp)
	vmovsd	%xmm2, 40(%rsp)
	vmovapd	%ymm0, 64(%rsp)
	movq	%rdx, %r15
.LVL14:
	.p2align 4
	.p2align 3
.L14:
	.loc 1 150 25 view .LVU52
.LBE221:
.LBE226:
.LBE232:
	.loc 1 123 13 is_stmt 1 view .LVU53
.LBB233:
.LBI233:
	.loc 2 891 1 view .LVU54
.LBB234:
	.loc 2 893 3 view .LVU55
	.loc 2 893 3 is_stmt 0 view .LVU56
.LBE234:
.LBE233:
	.loc 1 124 13 is_stmt 1 view .LVU57
.LBB235:
.LBI235:
	.loc 2 891 1 view .LVU58
.LBB236:
	.loc 2 893 3 view .LVU59
	.loc 2 893 3 is_stmt 0 view .LVU60
.LBE236:
.LBE235:
	.loc 1 125 13 is_stmt 1 view .LVU61
.LBB237:
.LBI237:
	.loc 2 891 1 view .LVU62
.LBB238:
	.loc 2 893 3 view .LVU63
	.loc 2 893 3 is_stmt 0 view .LVU64
.LBE238:
.LBE237:
	.loc 1 127 13 is_stmt 1 view .LVU65
.LBB239:
.LBI239:
	.loc 2 360 1 view .LVU66
.LBB240:
	.loc 2 362 3 view .LVU67
	.loc 2 362 10 is_stmt 0 view .LVU68
	movq	96(%rsp), %rdi
	leal	(%r15,%r15,2), %esi
.LBE240:
.LBE239:
	.loc 1 133 18 discriminator 1 view .LVU69
	xorl	%eax, %eax
.LBB243:
.LBB241:
	.loc 2 362 10 view .LVU70
	vmovapd	64(%rsp), %ymm5
.LBE241:
.LBE243:
.LBB244:
.LBB245:
	vsubpd	0(%r13,%r15,8), %ymm15, %ymm2
.LBE245:
.LBE244:
.LBB247:
.LBB242:
	vsubpd	(%rdi,%r15,8), %ymm5, %ymm4
.LVL15:
	.loc 2 362 10 view .LVU71
.LBE242:
.LBE247:
	.loc 1 128 13 is_stmt 1 view .LVU72
.LBB248:
.LBI248:
	.loc 2 360 1 view .LVU73
.LBB249:
	.loc 2 362 3 view .LVU74
	.loc 2 362 10 is_stmt 0 view .LVU75
	movq	144(%rsp), %rdi
	vsubpd	(%rdi,%r15,8), %ymm13, %ymm3
.LVL16:
	.loc 2 362 10 view .LVU76
.LBE249:
.LBE248:
	.loc 1 129 13 is_stmt 1 view .LVU77
.LBB250:
.LBI244:
	.loc 2 360 1 view .LVU78
.LBB246:
	.loc 2 362 3 view .LVU79
	.loc 2 362 3 is_stmt 0 view .LVU80
.LBE246:
.LBE250:
	.loc 1 131 13 is_stmt 1 view .LVU81
.LBB251:
.LBI181:
	.loc 1 78 16 view .LVU82
.LBB214:
	.loc 1 81 5 view .LVU83
.LBB191:
.LBI183:
	.loc 2 312 1 view .LVU84
.LBB186:
	.loc 2 314 3 view .LVU85
	.loc 2 314 3 is_stmt 0 view .LVU86
.LBE186:
.LBE191:
	.loc 1 84 5 is_stmt 1 view .LVU87
.LBB192:
.LBI188:
	.loc 2 360 1 view .LVU88
.LBB190:
	.loc 2 362 3 view .LVU89
	.loc 2 362 3 is_stmt 0 view .LVU90
.LBE190:
.LBE192:
.LBB193:
.LBI193:
	.loc 2 397 1 is_stmt 1 view .LVU91
.LBB194:
	.loc 2 399 3 view .LVU92
.LBE194:
.LBE193:
.LBE214:
.LBE251:
.LBB252:
.LBB227:
.LBB222:
	.loc 1 156 27 is_stmt 0 view .LVU93
	movq	%r13, %rdi
	movl	%r15d, %r13d
.LVL17:
	.loc 1 156 27 view .LVU94
.LBE222:
.LBE227:
.LBE252:
.LBB253:
.LBB215:
.LBB196:
.LBB197:
	.loc 2 143 10 view .LVU95
	vaddpd	%ymm4, %ymm6, %ymm8
.LBE197:
.LBE196:
.LBB199:
.LBB195:
	.loc 2 399 20 view .LVU96
	vcmppd	$18, %ymm14, %ymm4, %ymm11
.LVL18:
	.loc 2 399 20 view .LVU97
.LBE195:
.LBE199:
	.loc 1 87 5 is_stmt 1 view .LVU98
.LBB200:
.LBI200:
	.loc 2 397 1 view .LVU99
.LBB201:
	.loc 2 399 3 view .LVU100
	.loc 2 399 20 is_stmt 0 view .LVU101
	vcmppd	$30, %ymm1, %ymm4, %ymm5
.LVL19:
	.loc 2 399 20 view .LVU102
.LBE201:
.LBE200:
	.loc 1 90 5 is_stmt 1 view .LVU103
.LBB202:
.LBI196:
	.loc 2 141 1 view .LVU104
.LBB198:
	.loc 2 143 3 view .LVU105
	.loc 2 143 3 is_stmt 0 view .LVU106
.LBE198:
.LBE202:
	.loc 1 91 5 is_stmt 1 view .LVU107
.LBB203:
.LBI203:
	.loc 2 219 1 view .LVU108
.LBB204:
	.loc 2 221 3 view .LVU109
	.loc 2 221 20 is_stmt 0 view .LVU110
	vblendvpd	%ymm11, %ymm8, %ymm4, %ymm4
.LVL20:
	.loc 2 221 20 view .LVU111
.LBE204:
.LBE203:
	.loc 1 94 5 is_stmt 1 view .LVU112
.LBB205:
.LBI205:
	.loc 2 360 1 view .LVU113
.LBB206:
	.loc 2 362 3 view .LVU114
	.loc 2 362 3 is_stmt 0 view .LVU115
.LBE206:
.LBE205:
	.loc 1 95 5 is_stmt 1 view .LVU116
.LBB208:
.LBI208:
	.loc 2 219 1 view .LVU117
.LBB209:
	.loc 2 221 3 view .LVU118
.LBE209:
.LBE208:
.LBB211:
.LBB207:
	.loc 2 362 10 is_stmt 0 view .LVU119
	vsubpd	%ymm6, %ymm4, %ymm8
.LVL21:
	.loc 2 362 10 view .LVU120
.LBE207:
.LBE211:
.LBB212:
.LBB210:
	.loc 2 221 20 view .LVU121
	vblendvpd	%ymm5, %ymm8, %ymm4, %ymm4
.LVL22:
	.loc 2 221 20 view .LVU122
.LBE210:
.LBE212:
	.loc 1 97 5 is_stmt 1 view .LVU123
	.loc 1 97 5 is_stmt 0 view .LVU124
.LBE215:
.LBE253:
.LBB254:
.LBB255:
.LBB256:
.LBB257:
	.loc 2 143 10 view .LVU125
	vaddpd	%ymm3, %ymm6, %ymm5
.LVL23:
	.loc 2 143 10 view .LVU126
.LBE257:
.LBE256:
.LBB259:
.LBB260:
	.loc 2 399 20 view .LVU127
	vcmppd	$18, %ymm14, %ymm3, %ymm8
.LVL24:
	.loc 2 399 20 view .LVU128
.LBE260:
.LBE259:
.LBE255:
.LBE254:
	.loc 1 131 18 discriminator 1 view .LVU129
	vmovapd	%ymm4, 160(%rsp)
	.loc 1 132 13 is_stmt 1 view .LVU130
.LVL25:
.LBB277:
.LBI254:
	.loc 1 78 16 view .LVU131
.LBB276:
	.loc 1 81 5 view .LVU132
	.loc 1 84 5 view .LVU133
.LBB262:
.LBI259:
	.loc 2 397 1 view .LVU134
.LBB261:
	.loc 2 399 3 view .LVU135
	.loc 2 399 3 is_stmt 0 view .LVU136
.LBE261:
.LBE262:
	.loc 1 87 5 is_stmt 1 view .LVU137
.LBB263:
.LBI263:
	.loc 2 397 1 view .LVU138
.LBB264:
	.loc 2 399 3 view .LVU139
	.loc 2 399 20 is_stmt 0 view .LVU140
	vcmppd	$30, %ymm1, %ymm3, %ymm4
.LVL26:
	.loc 2 399 20 view .LVU141
.LBE264:
.LBE263:
	.loc 1 90 5 is_stmt 1 view .LVU142
.LBB265:
.LBI256:
	.loc 2 141 1 view .LVU143
.LBB258:
	.loc 2 143 3 view .LVU144
	.loc 2 143 3 is_stmt 0 view .LVU145
.LBE258:
.LBE265:
	.loc 1 91 5 is_stmt 1 view .LVU146
.LBB266:
.LBI266:
	.loc 2 219 1 view .LVU147
.LBB267:
	.loc 2 221 3 view .LVU148
	.loc 2 221 20 is_stmt 0 view .LVU149
	vblendvpd	%ymm8, %ymm5, %ymm3, %ymm3
.LVL27:
	.loc 2 221 20 view .LVU150
.LBE267:
.LBE266:
	.loc 1 94 5 is_stmt 1 view .LVU151
.LBB268:
.LBI268:
	.loc 2 360 1 view .LVU152
.LBB269:
	.loc 2 362 3 view .LVU153
	.loc 2 362 3 is_stmt 0 view .LVU154
.LBE269:
.LBE268:
	.loc 1 95 5 is_stmt 1 view .LVU155
.LBB271:
.LBI271:
	.loc 2 219 1 view .LVU156
.LBB272:
	.loc 2 221 3 view .LVU157
.LBE272:
.LBE271:
.LBB274:
.LBB270:
	.loc 2 362 10 is_stmt 0 view .LVU158
	vsubpd	%ymm6, %ymm3, %ymm5
.LVL28:
	.loc 2 362 10 view .LVU159
.LBE270:
.LBE274:
.LBB275:
.LBB273:
	.loc 2 221 20 view .LVU160
	vblendvpd	%ymm4, %ymm5, %ymm3, %ymm3
.LVL29:
	.loc 2 221 20 view .LVU161
.LBE273:
.LBE275:
	.loc 1 97 5 is_stmt 1 view .LVU162
	.loc 1 97 5 is_stmt 0 view .LVU163
.LBE276:
.LBE277:
.LBB278:
.LBB279:
.LBB280:
.LBB281:
	.loc 2 143 10 view .LVU164
	vaddpd	%ymm2, %ymm6, %ymm4
.LVL30:
	.loc 2 143 10 view .LVU165
.LBE281:
.LBE280:
.LBB283:
.LBB284:
	.loc 2 399 20 view .LVU166
	vcmppd	$18, %ymm14, %ymm2, %ymm5
.LVL31:
	.loc 2 399 20 view .LVU167
.LBE284:
.LBE283:
.LBE279:
.LBE278:
	.loc 1 132 18 discriminator 1 view .LVU168
	vmovapd	%ymm3, 192(%rsp)
	.loc 1 133 13 is_stmt 1 view .LVU169
.LVL32:
.LBB301:
.LBI278:
	.loc 1 78 16 view .LVU170
.LBB300:
	.loc 1 81 5 view .LVU171
	.loc 1 84 5 view .LVU172
.LBB286:
.LBI283:
	.loc 2 397 1 view .LVU173
.LBB285:
	.loc 2 399 3 view .LVU174
	.loc 2 399 3 is_stmt 0 view .LVU175
.LBE285:
.LBE286:
	.loc 1 87 5 is_stmt 1 view .LVU176
.LBB287:
.LBI287:
	.loc 2 397 1 view .LVU177
.LBB288:
	.loc 2 399 3 view .LVU178
	.loc 2 399 20 is_stmt 0 view .LVU179
	vcmppd	$30, %ymm1, %ymm2, %ymm3
.LVL33:
	.loc 2 399 20 view .LVU180
.LBE288:
.LBE287:
	.loc 1 90 5 is_stmt 1 view .LVU181
.LBB289:
.LBI280:
	.loc 2 141 1 view .LVU182
.LBB282:
	.loc 2 143 3 view .LVU183
	.loc 2 143 3 is_stmt 0 view .LVU184
.LBE282:
.LBE289:
	.loc 1 91 5 is_stmt 1 view .LVU185
.LBB290:
.LBI290:
	.loc 2 219 1 view .LVU186
.LBB291:
	.loc 2 221 3 view .LVU187
	.loc 2 221 20 is_stmt 0 view .LVU188
	vblendvpd	%ymm5, %ymm4, %ymm2, %ymm2
.LVL34:
	.loc 2 221 20 view .LVU189
.LBE291:
.LBE290:
	.loc 1 94 5 is_stmt 1 view .LVU190
.LBB292:
.LBI292:
	.loc 2 360 1 view .LVU191
.LBB293:
	.loc 2 362 3 view .LVU192
	.loc 2 362 3 is_stmt 0 view .LVU193
.LBE293:
.LBE292:
	.loc 1 95 5 is_stmt 1 view .LVU194
.LBB295:
.LBI295:
	.loc 2 219 1 view .LVU195
.LBB296:
	.loc 2 221 3 view .LVU196
.LBE296:
.LBE295:
.LBB298:
.LBB294:
	.loc 2 362 10 is_stmt 0 view .LVU197
	vsubpd	%ymm6, %ymm2, %ymm4
.LVL35:
	.loc 2 362 10 view .LVU198
.LBE294:
.LBE298:
.LBB299:
.LBB297:
	.loc 2 221 20 view .LVU199
	vblendvpd	%ymm3, %ymm4, %ymm2, %ymm2
.LVL36:
	.loc 2 221 20 view .LVU200
.LBE297:
.LBE299:
	.loc 1 97 5 is_stmt 1 view .LVU201
	.loc 1 97 5 is_stmt 0 view .LVU202
.LBE300:
.LBE301:
	.loc 1 133 18 discriminator 1 view .LVU203
	vmovapd	%ymm2, 224(%rsp)
	.loc 1 135 13 is_stmt 1 view .LVU204
.LBB302:
	.loc 1 135 18 view .LVU205
.LVL37:
	.loc 1 135 31 discriminator 1 view .LVU206
.L13:
.LBB228:
	.loc 1 136 17 view .LVU207
	.loc 1 137 24 is_stmt 0 view .LVU208
	vmovsd	(%r9,%rax,8), %xmm5
	.loc 1 136 24 view .LVU209
	vmovsd	(%r10,%rax,8), %xmm0
.LVL38:
	.loc 1 137 17 is_stmt 1 view .LVU210
	.loc 1 138 17 view .LVU211
	.loc 1 138 24 is_stmt 0 view .LVU212
	vmovsd	(%r8,%rax,8), %xmm4
.LVL39:
	.loc 1 140 17 is_stmt 1 view .LVU213
	.loc 1 140 44 is_stmt 0 view .LVU214
	vmulsd	%xmm5, %xmm5, %xmm2
	.loc 1 140 39 view .LVU215
	vfmadd231sd	%xmm0, %xmm0, %xmm2
	.loc 1 140 24 view .LVU216
	vfmadd231sd	%xmm4, %xmm4, %xmm2
.LVL40:
	.loc 1 142 17 is_stmt 1 view .LVU217
	.loc 1 142 20 is_stmt 0 view .LVU218
	vcomisd	%xmm2, %xmm12
	jb	.L11
.LBB223:
	.loc 1 143 21 is_stmt 1 view .LVU219
	.loc 1 143 28 is_stmt 0 view .LVU220
	vdivsd	%xmm2, %xmm7, %xmm3
.LVL41:
	.loc 1 144 21 is_stmt 1 view .LVU221
	.loc 1 146 69 is_stmt 0 view .LVU222
	vmovsd	.LC6(%rip), %xmm11
	.loc 1 152 25 view .LVU223
	movslq	%esi, %rdx
	vaddsd	.LC9(%rip), %xmm10, %xmm10
	salq	$3, %rdx
	leaq	(%r14,%rdx), %rcx
	.loc 1 144 28 view .LVU224
	vmulsd	%xmm3, %xmm3, %xmm8
	vmulsd	%xmm3, %xmm8, %xmm8
.LVL42:
	.loc 1 146 21 is_stmt 1 view .LVU225
	.loc 1 146 69 is_stmt 0 view .LVU226
	vfmadd213sd	.LC7(%rip), %xmm8, %xmm11
	.loc 1 146 28 view .LVU227
	vmulsd	.LC8(%rip), %xmm3, %xmm3
.LVL43:
	.loc 1 146 28 view .LVU228
	vmulsd	%xmm11, %xmm8, %xmm11
	vmulsd	%xmm3, %xmm11, %xmm3
.LVL44:
	.loc 1 148 21 is_stmt 1 view .LVU229
	.loc 1 148 41 is_stmt 0 view .LVU230
	vmovapd	%xmm0, %xmm11
	vfmadd213sd	(%r12), %xmm3, %xmm11
	.loc 1 157 30 view .LVU231
	vfmadd231sd	%xmm3, %xmm2, %xmm9
	.loc 1 148 41 view .LVU232
	vmovsd	%xmm11, (%r12)
	.loc 1 149 21 is_stmt 1 view .LVU233
	.loc 1 149 41 is_stmt 0 view .LVU234
	vmovapd	%xmm5, %xmm11
	vfmadd213sd	(%rbx), %xmm3, %xmm11
	vmovsd	%xmm11, (%rbx)
	.loc 1 150 21 is_stmt 1 view .LVU235
	.loc 1 150 41 is_stmt 0 view .LVU236
	vmovapd	%xmm4, %xmm11
	vfmadd213sd	(%r11), %xmm3, %xmm11
	vmovsd	%xmm11, (%r11)
	.loc 1 152 21 is_stmt 1 view .LVU237
	.loc 1 152 45 is_stmt 0 view .LVU238
	vfnmadd213sd	(%rcx), %xmm3, %xmm0
.LVL45:
	.loc 1 152 45 view .LVU239
	vmovsd	%xmm0, (%rcx)
	.loc 1 153 21 is_stmt 1 view .LVU240
	.loc 1 153 25 is_stmt 0 view .LVU241
	leaq	8(%r14,%rdx), %rcx
	.loc 1 154 25 view .LVU242
	leaq	16(%r14,%rdx), %rdx
	.loc 1 153 45 view .LVU243
	vfnmadd213sd	(%rcx), %xmm3, %xmm5
.LVL46:
	.loc 1 153 45 view .LVU244
	vmovsd	%xmm5, (%rcx)
	.loc 1 154 21 is_stmt 1 view .LVU245
	.loc 1 154 45 is_stmt 0 view .LVU246
	vfnmadd213sd	(%rdx), %xmm3, %xmm4
.LVL47:
	.loc 1 154 45 view .LVU247
	vmovsd	%xmm4, (%rdx)
	.loc 1 156 21 is_stmt 1 view .LVU248
	.loc 1 156 51 is_stmt 0 view .LVU249
	vsubsd	%xmm7, %xmm8, %xmm4
	.loc 1 156 27 view .LVU250
	vmulsd	.LC10(%rip), %xmm8, %xmm8
.LVL48:
	.loc 1 156 27 view .LVU251
	vfmadd231sd	%xmm8, %xmm4, %xmm10
.LVL49:
	.loc 1 157 21 is_stmt 1 view .LVU252
.L11:
	.loc 1 157 21 is_stmt 0 view .LVU253
.LBE223:
.LBE228:
	.loc 1 135 37 is_stmt 1 discriminator 2 view .LVU254
	.loc 1 135 31 discriminator 1 view .LVU255
	incq	%rax
.LVL50:
	.loc 1 135 31 is_stmt 0 discriminator 1 view .LVU256
	addl	$3, %esi
	cmpq	$3, %rax
	jne	.L13
.LBE302:
.LBE305:
	.loc 1 121 38 discriminator 1 view .LVU257
	movq	%r15, %rax
.LVL51:
	.loc 1 121 38 discriminator 1 view .LVU258
	movl	%r13d, %ecx
	movq	%rdi, %r13
.LBB306:
	.loc 1 160 13 is_stmt 1 view .LVU259
.LVL52:
	.loc 1 160 13 is_stmt 0 view .LVU260
.LBE306:
	.loc 1 121 46 is_stmt 1 discriminator 2 view .LVU261
	.loc 1 121 38 discriminator 1 view .LVU262
	addq	$3, %rax
	movq	%rax, %rdi
.LVL53:
	.loc 1 121 38 is_stmt 0 discriminator 1 view .LVU263
	movq	%rax, %r15
.LVL54:
	.loc 1 121 38 discriminator 1 view .LVU264
	movl	$1372, %eax
.LVL55:
	.loc 1 121 38 discriminator 1 view .LVU265
	subl	%edi, %eax
	cmpl	$2, %eax
	jg	.L14
.LBB307:
	.loc 1 160 20 view .LVU266
	vmovsd	56(%rsp), %xmm5
	vmovsd	48(%rsp), %xmm4
	movl	%ecx, %edi
.LVL56:
	.loc 1 160 20 view .LVU267
	vmovsd	40(%rsp), %xmm2
.LVL57:
	.loc 1 160 20 view .LVU268
	movl	128(%rsp), %esi
	leal	3(%rdi), %eax
	movq	144(%rsp), %r15
.LVL58:
	.loc 1 160 20 view .LVU269
	movq	96(%rsp), %rcx
.LVL59:
.L15:
	.loc 1 160 20 view .LVU270
.LBE307:
.LBE320:
.LBB321:
	.loc 1 163 32 is_stmt 1 discriminator 1 view .LVU271
	cmpl	$1371, %eax
	jg	.L10
.LBB322:
.LBB323:
	.loc 1 185 24 is_stmt 0 view .LVU272
	vmovsd	.LC5(%rip), %xmm11
	.loc 1 190 21 view .LVU273
	movslq	%esi, %rdx
.LBE323:
.LBB324:
.LBB325:
	.loc 2 1260 10 view .LVU274
	vmovq	%xmm2, %xmm0
	vunpcklpd	%xmm4, %xmm5, %xmm2
.LBE325:
.LBE324:
.LBB328:
	.loc 1 190 21 view .LVU275
	salq	$3, %rdx
.LBE328:
.LBB329:
.LBB326:
	.loc 2 1260 10 view .LVU276
	vinsertf128	$0x1, %xmm0, %ymm2, %ymm15
.LVL60:
	.loc 2 1260 10 view .LVU277
	cltq
.LBE326:
.LBE329:
.LBB330:
	.loc 1 190 21 view .LVU278
	leaq	(%r14,%rdx), %r9
	.loc 1 191 21 view .LVU279
	leaq	8(%r14,%rdx), %r8
	.loc 1 192 21 view .LVU280
	leaq	16(%r14,%rdx), %rdi
.LVL61:
.L9:
	.loc 1 192 21 view .LVU281
.LBE330:
	.loc 1 164 13 is_stmt 1 view .LVU282
	.loc 1 165 13 view .LVU283
	.loc 1 166 13 view .LVU284
	.loc 1 167 13 view .LVU285
.LBB331:
.LBI324:
	.loc 2 1258 1 view .LVU286
.LBB327:
	.loc 2 1260 3 view .LVU287
	.loc 2 1260 3 is_stmt 0 view .LVU288
.LBE327:
.LBE331:
	.loc 1 169 13 is_stmt 1 view .LVU289
	.loc 1 170 13 view .LVU290
	.loc 1 171 13 view .LVU291
	.loc 1 172 13 view .LVU292
.LBB332:
.LBI332:
	.loc 2 1258 1 view .LVU293
.LBB333:
	.loc 2 1260 3 view .LVU294
	.loc 2 1260 3 is_stmt 0 view .LVU295
.LBE333:
.LBE332:
	.loc 1 174 13 is_stmt 1 view .LVU296
.LBB335:
.LBI335:
	.loc 2 360 1 view .LVU297
.LBB336:
	.loc 2 362 3 view .LVU298
.LBE336:
.LBE335:
.LBB338:
.LBB334:
	.loc 2 1260 10 is_stmt 0 view .LVU299
	vmovsd	(%rcx,%rax,8), %xmm0
	vmovq	0(%r13,%rax,8), %xmm2
	vmovhpd	(%r15,%rax,8), %xmm0, %xmm0
	vinsertf128	$0x1, %xmm2, %ymm0, %ymm0
.LBE334:
.LBE338:
.LBB339:
.LBB337:
	.loc 2 362 10 view .LVU300
	vsubpd	%ymm0, %ymm15, %ymm0
.LVL62:
	.loc 2 362 10 view .LVU301
.LBE337:
.LBE339:
	.loc 1 176 13 is_stmt 1 view .LVU302
.LBB340:
.LBI340:
	.loc 1 78 16 view .LVU303
.LBB341:
	.loc 1 81 5 view .LVU304
	.loc 1 84 5 view .LVU305
.LBB342:
.LBI342:
	.loc 2 397 1 view .LVU306
.LBB343:
	.loc 2 399 3 view .LVU307
.LBE343:
.LBE342:
.LBB345:
.LBB346:
	.loc 2 143 10 is_stmt 0 view .LVU308
	vaddpd	%ymm0, %ymm6, %ymm2
.LBE346:
.LBE345:
.LBB348:
.LBB344:
	.loc 2 399 20 view .LVU309
	vcmppd	$18, %ymm14, %ymm0, %ymm4
.LVL63:
	.loc 2 399 20 view .LVU310
.LBE344:
.LBE348:
	.loc 1 87 5 is_stmt 1 view .LVU311
.LBB349:
.LBI349:
	.loc 2 397 1 view .LVU312
.LBB350:
	.loc 2 399 3 view .LVU313
	.loc 2 399 20 is_stmt 0 view .LVU314
	vcmppd	$30, %ymm1, %ymm0, %ymm3
.LVL64:
	.loc 2 399 20 view .LVU315
.LBE350:
.LBE349:
	.loc 1 90 5 is_stmt 1 view .LVU316
.LBB351:
.LBI345:
	.loc 2 141 1 view .LVU317
.LBB347:
	.loc 2 143 3 view .LVU318
	.loc 2 143 3 is_stmt 0 view .LVU319
.LBE347:
.LBE351:
	.loc 1 91 5 is_stmt 1 view .LVU320
.LBB352:
.LBI352:
	.loc 2 219 1 view .LVU321
.LBB353:
	.loc 2 221 3 view .LVU322
	.loc 2 221 20 is_stmt 0 view .LVU323
	vblendvpd	%ymm4, %ymm2, %ymm0, %ymm0
.LVL65:
	.loc 2 221 20 view .LVU324
.LBE353:
.LBE352:
	.loc 1 94 5 is_stmt 1 view .LVU325
.LBB354:
.LBI354:
	.loc 2 360 1 view .LVU326
.LBB355:
	.loc 2 362 3 view .LVU327
	.loc 2 362 3 is_stmt 0 view .LVU328
.LBE355:
.LBE354:
	.loc 1 95 5 is_stmt 1 view .LVU329
.LBB357:
.LBI357:
	.loc 2 219 1 view .LVU330
.LBB358:
	.loc 2 221 3 view .LVU331
.LBE358:
.LBE357:
.LBB360:
.LBB356:
	.loc 2 362 10 is_stmt 0 view .LVU332
	vsubpd	%ymm6, %ymm0, %ymm2
.LVL66:
	.loc 2 362 10 view .LVU333
.LBE356:
.LBE360:
.LBB361:
.LBB359:
	.loc 2 221 20 view .LVU334
	vblendvpd	%ymm3, %ymm2, %ymm0, %ymm0
.LVL67:
	.loc 2 221 20 view .LVU335
.LBE359:
.LBE361:
	.loc 1 97 5 is_stmt 1 view .LVU336
	.loc 1 97 5 is_stmt 0 view .LVU337
.LBE341:
.LBE340:
	.loc 1 178 13 is_stmt 1 view .LVU338
	vunpckhpd	%xmm0, %xmm0, %xmm2
.LVL68:
	.loc 1 178 13 is_stmt 0 view .LVU339
	vmovapd	%xmm0, %xmm5
.LVL69:
	.loc 1 179 13 is_stmt 1 view .LVU340
	.loc 1 180 13 view .LVU341
	vextractf128	$0x1, %ymm0, %xmm0
.LVL70:
	.loc 1 182 13 view .LVU342
	.loc 1 182 40 is_stmt 0 view .LVU343
	vmulsd	%xmm2, %xmm2, %xmm3
.LVL71:
	.loc 1 182 35 view .LVU344
	vfmadd231sd	%xmm5, %xmm5, %xmm3
	.loc 1 182 20 view .LVU345
	vfmadd231sd	%xmm0, %xmm0, %xmm3
.LVL72:
	.loc 1 184 13 is_stmt 1 view .LVU346
	.loc 1 184 16 is_stmt 0 view .LVU347
	vcomisd	%xmm3, %xmm12
	jb	.L7
.LBB362:
	.loc 1 185 17 is_stmt 1 view .LVU348
	.loc 1 185 24 is_stmt 0 view .LVU349
	vdivsd	%xmm3, %xmm11, %xmm13
.LVL73:
	.loc 1 186 17 is_stmt 1 view .LVU350
	.loc 1 188 65 is_stmt 0 view .LVU351
	vmovsd	.LC6(%rip), %xmm4
.LVL74:
	.loc 1 194 21 view .LVU352
	leal	(%rax,%rax,2), %edx
	vaddsd	.LC9(%rip), %xmm10, %xmm10
	movslq	%edx, %rdx
	salq	$3, %rdx
	leaq	(%r14,%rdx), %r10
	.loc 1 186 24 view .LVU353
	vmulsd	%xmm13, %xmm13, %xmm8
	vmulsd	%xmm13, %xmm8, %xmm8
.LVL75:
	.loc 1 188 17 is_stmt 1 view .LVU354
	.loc 1 188 65 is_stmt 0 view .LVU355
	vfmadd213sd	.LC7(%rip), %xmm8, %xmm4
	.loc 1 188 24 view .LVU356
	vmulsd	.LC8(%rip), %xmm13, %xmm13
.LVL76:
	.loc 1 188 24 view .LVU357
	vmulsd	%xmm8, %xmm4, %xmm4
	vmulsd	%xmm13, %xmm4, %xmm4
.LVL77:
	.loc 1 190 17 is_stmt 1 view .LVU358
	.loc 1 190 37 is_stmt 0 view .LVU359
	vmovapd	%xmm4, %xmm13
	vfmadd213sd	(%r9), %xmm5, %xmm13
	.loc 1 199 26 view .LVU360
	vfmadd231sd	%xmm3, %xmm4, %xmm9
	.loc 1 190 37 view .LVU361
	vmovsd	%xmm13, (%r9)
	.loc 1 191 17 is_stmt 1 view .LVU362
	.loc 1 191 37 is_stmt 0 view .LVU363
	vmovapd	%xmm4, %xmm13
	vfmadd213sd	(%r8), %xmm2, %xmm13
	vmovsd	%xmm13, (%r8)
	.loc 1 192 17 is_stmt 1 view .LVU364
	.loc 1 192 37 is_stmt 0 view .LVU365
	vmovapd	%xmm4, %xmm13
	vfmadd213sd	(%rdi), %xmm0, %xmm13
	vmovsd	%xmm13, (%rdi)
	.loc 1 194 17 is_stmt 1 view .LVU366
	.loc 1 194 35 is_stmt 0 view .LVU367
	vfnmadd213sd	(%r10), %xmm4, %xmm5
.LVL78:
	.loc 1 194 35 view .LVU368
	vmovsd	%xmm5, (%r10)
	.loc 1 195 17 is_stmt 1 view .LVU369
	.loc 1 195 21 is_stmt 0 view .LVU370
	leaq	8(%r14,%rdx), %r10
	.loc 1 196 21 view .LVU371
	leaq	16(%r14,%rdx), %rdx
	.loc 1 195 35 view .LVU372
	vfnmadd213sd	(%r10), %xmm4, %xmm2
.LVL79:
	.loc 1 195 35 view .LVU373
	vmovsd	%xmm2, (%r10)
	.loc 1 196 17 is_stmt 1 view .LVU374
	.loc 1 196 35 is_stmt 0 view .LVU375
	vfnmadd213sd	(%rdx), %xmm4, %xmm0
.LVL80:
	.loc 1 196 35 view .LVU376
	vmovsd	%xmm0, (%rdx)
	.loc 1 198 17 is_stmt 1 view .LVU377
	.loc 1 198 23 is_stmt 0 view .LVU378
	vmulsd	.LC10(%rip), %xmm8, %xmm0
	.loc 1 198 47 view .LVU379
	vsubsd	%xmm11, %xmm8, %xmm8
.LVL81:
	.loc 1 198 23 view .LVU380
	vfmadd231sd	%xmm8, %xmm0, %xmm10
.LVL82:
	.loc 1 199 17 is_stmt 1 view .LVU381
.L7:
	.loc 1 199 17 is_stmt 0 view .LVU382
.LBE362:
.LBE322:
	.loc 1 163 42 is_stmt 1 discriminator 2 view .LVU383
	.loc 1 163 32 discriminator 1 view .LVU384
	incq	%rax
.LVL83:
	.loc 1 163 32 is_stmt 0 discriminator 1 view .LVU385
	cmpl	$1371, %eax
	jle	.L9
.LVL84:
.L10:
	.loc 1 163 32 discriminator 1 view .LVU386
	movl	36(%rsp), %eax
	addl	$3, %esi
	incq	136(%rsp)
.LVL85:
	.loc 1 163 32 discriminator 1 view .LVU387
	cmpl	%eax, %esi
	jne	.L6
	movq	24(%rsp), %r12
	vmovapd	%xmm9, %xmm11
.LVL86:
.L3:
	.loc 1 163 32 discriminator 1 view .LVU388
	vunpcklpd	%xmm10, %xmm11, %xmm1
.LBE321:
.LBE364:
.LBE366:
.LBE368:
	.loc 1 114 9 view .LVU389
	movq	80(%r12), %rbx
	vmovapd	%xmm1, 144(%rsp)
.LVL87:
	.loc 1 114 9 view .LVU390
	vzeroupper
.LVL88:
	call	GOMP_atomic_start@PLT
.LVL89:
	xorl	%eax, %eax
	vmovapd	144(%rsp), %xmm1
	.p2align 5
	.p2align 4
	.p2align 3
.L16:
	.loc 1 114 35 view .LVU391
	vmovupd	(%rbx,%rax), %ymm0
	.loc 1 114 9 view .LVU392
	vaddpd	(%r14,%rax), %ymm0, %ymm0
	vmovupd	%ymm0, (%rbx,%rax)
	addq	$32, %rax
	cmpq	$32928, %rax
	jne	.L16
	vaddpd	64(%r12), %xmm1, %xmm0
	vmovapd	%xmm0, 64(%r12)
	vzeroupper
.LVL90:
	call	GOMP_atomic_end@PLT
.LVL91:
	leaq	-40(%rbp), %rsp
	popq	%rbx
	popq	%r12
	popq	%r13
	popq	%r14
.LVL92:
	.loc 1 114 9 view .LVU393
	popq	%r15
	popq	%rbp
	.cfi_remember_state
	.cfi_def_cfa 7, 8
.LVL93:
	.loc 1 114 9 view .LVU394
	ret
.LVL94:
.L18:
	.cfi_restore_state
	.loc 1 114 9 discriminator 1 view .LVU395
	vxorpd	%xmm11, %xmm11, %xmm11
	vmovapd	%xmm11, %xmm10
	jmp	.L3
.L2:
	incl	%eax
	.loc 1 114 9 discriminator 2 view .LVU396
	xorl	%edx, %edx
	jmp	.L17
	.cfi_endproc
.LFE6573:
	.size	forces._omp_fn.0, .-forces._omp_fn.0
	.p2align 4
	.globl	init_pos
	.type	init_pos, @function
init_pos:
.LVL95:
.LFB6567:
	.loc 1 13 1 is_stmt 1 view -0
	.cfi_startproc
	.loc 1 16 5 view .LVU398
	.loc 1 16 16 is_stmt 0 view .LVU399
	vmovsd	.LC10(%rip), %xmm1
	.loc 1 13 1 view .LVU400
	pushq	%r12
	.cfi_def_cfa_offset 16
	.cfi_offset 12, -16
	pushq	%rbp
	.cfi_def_cfa_offset 24
	.cfi_offset 6, -24
	movq	%rdi, %r12
	pushq	%rbx
	.cfi_def_cfa_offset 32
	.cfi_offset 3, -32
	.loc 1 13 1 view .LVU401
	movq	%rsi, %rbp
	movq	%rdx, %rbx
	.loc 1 16 16 view .LVU402
	vdivsd	%xmm0, %xmm1, %xmm0
.LVL96:
	.loc 1 16 16 view .LVU403
	call	cbrt@PLT
.LVL97:
	.loc 1 16 16 view .LVU404
	vmovsd	.LC2(%rip), %xmm6
	xorl	%ecx, %ecx
.LBB369:
	.loc 1 20 14 view .LVU405
	xorl	%edx, %edx
.LBE369:
	.loc 1 16 16 view .LVU406
	vmovapd	%xmm0, %xmm3
.LVL98:
	.loc 1 17 5 is_stmt 1 view .LVU407
	.loc 1 18 5 view .LVU408
	.loc 1 20 5 view .LVU409
.LBB373:
	.loc 1 20 10 view .LVU410
	.loc 1 20 23 discriminator 1 view .LVU411
.LBE373:
	.loc 1 18 9 is_stmt 0 view .LVU412
	xorl	%eax, %eax
	vxorps	%xmm5, %xmm5, %xmm5
.LVL99:
	.p2align 4
	.p2align 3
.L31:
.LBB374:
.LBB370:
	.loc 1 21 27 is_stmt 1 discriminator 1 view .LVU413
.LBB371:
	.loc 1 23 29 is_stmt 0 view .LVU414
	vcvtsi2sdl	%edx, %xmm5, %xmm4
	vmulsd	%xmm3, %xmm4, %xmm8
	.loc 1 27 34 view .LVU415
	vaddsd	%xmm6, %xmm4, %xmm4
	.loc 1 27 41 view .LVU416
	movq	%rcx, %r10
.LBE371:
	.loc 1 21 18 view .LVU417
	xorl	%r11d, %r11d
.LBB372:
	.loc 1 27 41 view .LVU418
	vmulsd	%xmm3, %xmm4, %xmm4
.LVL100:
	.p2align 4
	.p2align 3
.L35:
	.loc 1 22 31 is_stmt 1 discriminator 1 view .LVU419
	.loc 1 24 29 is_stmt 0 view .LVU420
	vcvtsi2sdl	%r11d, %xmm5, %xmm1
	vmulsd	%xmm3, %xmm1, %xmm7
	.loc 1 28 34 view .LVU421
	vaddsd	%xmm6, %xmm1, %xmm1
	leaq	(%r12,%r10), %r8
	leaq	0(%rbp,%r10), %rdi
	leaq	(%rbx,%r10), %rsi
	.loc 1 22 22 view .LVU422
	xorl	%r9d, %r9d
	.loc 1 28 41 view .LVU423
	vmulsd	%xmm3, %xmm1, %xmm1
.LVL101:
	.p2align 4
	.p2align 3
.L32:
	.loc 1 23 17 is_stmt 1 view .LVU424
	.loc 1 25 29 is_stmt 0 view .LVU425
	vcvtsi2sdl	%r9d, %xmm5, %xmm0
	vmulsd	%xmm3, %xmm0, %xmm2
	.loc 1 33 34 view .LVU426
	vaddsd	%xmm6, %xmm0, %xmm0
	.loc 1 22 43 discriminator 3 view .LVU427
	incl	%r9d
.LVL102:
	.loc 1 23 25 view .LVU428
	vmovsd	%xmm8, (%r8)
	.loc 1 24 17 is_stmt 1 view .LVU429
	.loc 1 22 31 is_stmt 0 discriminator 1 view .LVU430
	addq	$32, %rdi
	.loc 1 24 25 view .LVU431
	vmovsd	%xmm7, -32(%rdi)
	.loc 1 25 17 is_stmt 1 view .LVU432
	.loc 1 22 31 is_stmt 0 discriminator 1 view .LVU433
	addq	$32, %r8
	addq	$32, %rsi
	.loc 1 33 41 view .LVU434
	vmulsd	%xmm3, %xmm0, %xmm0
	.loc 1 25 25 view .LVU435
	vmovsd	%xmm2, -32(%rsi)
	.loc 1 27 17 is_stmt 1 view .LVU436
	.loc 1 27 29 is_stmt 0 view .LVU437
	vmovsd	%xmm4, -24(%r8)
	.loc 1 28 17 is_stmt 1 view .LVU438
	.loc 1 28 29 is_stmt 0 view .LVU439
	vmovsd	%xmm1, -24(%rdi)
	.loc 1 29 17 is_stmt 1 view .LVU440
	.loc 1 29 29 is_stmt 0 view .LVU441
	vmovsd	%xmm2, -24(%rsi)
	.loc 1 31 17 is_stmt 1 view .LVU442
	.loc 1 31 29 is_stmt 0 view .LVU443
	vmovsd	%xmm4, -16(%r8)
	.loc 1 32 17 is_stmt 1 view .LVU444
	.loc 1 32 29 is_stmt 0 view .LVU445
	vmovsd	%xmm7, -16(%rdi)
	.loc 1 33 17 is_stmt 1 view .LVU446
	.loc 1 33 29 is_stmt 0 view .LVU447
	vmovsd	%xmm0, -16(%rsi)
	.loc 1 35 17 is_stmt 1 view .LVU448
	.loc 1 35 29 is_stmt 0 view .LVU449
	vmovsd	%xmm8, -8(%r8)
	.loc 1 36 17 is_stmt 1 view .LVU450
	.loc 1 36 29 is_stmt 0 view .LVU451
	vmovsd	%xmm1, -8(%rdi)
	.loc 1 37 17 is_stmt 1 view .LVU452
	.loc 1 37 29 is_stmt 0 view .LVU453
	vmovsd	%xmm0, -8(%rsi)
	.loc 1 39 17 is_stmt 1 view .LVU454
.LVL103:
	.loc 1 22 43 discriminator 3 view .LVU455
	.loc 1 22 31 discriminator 1 view .LVU456
	cmpl	$7, %r9d
	jne	.L32
.LBE372:
	.loc 1 21 39 discriminator 2 view .LVU457
	incl	%r11d
.LVL104:
	.loc 1 21 27 discriminator 1 view .LVU458
	addq	$224, %r10
	cmpl	$7, %r11d
	jne	.L35
	addl	$196, %eax
.LBE370:
	.loc 1 20 35 discriminator 2 view .LVU459
	incl	%edx
.LVL105:
	.loc 1 20 23 discriminator 1 view .LVU460
	addq	$1568, %rcx
	cmpl	$1372, %eax
	jne	.L31
.LBE374:
	.loc 1 43 1 is_stmt 0 view .LVU461
	popq	%rbx
	.cfi_def_cfa_offset 24
.LVL106:
	.loc 1 43 1 view .LVU462
	popq	%rbp
	.cfi_def_cfa_offset 16
.LVL107:
	.loc 1 43 1 view .LVU463
	popq	%r12
	.cfi_def_cfa_offset 8
.LVL108:
	.loc 1 43 1 view .LVU464
	ret
	.cfi_endproc
.LFE6567:
	.size	init_pos, .-init_pos
	.p2align 4
	.globl	init_vel
	.type	init_vel, @function
init_vel:
.LVL109:
.LFB6568:
	.loc 1 46 1 is_stmt 1 view -0
	.cfi_startproc
	.loc 1 49 5 view .LVU466
	.loc 1 51 5 view .LVU467
.LBB375:
	.loc 1 51 10 view .LVU468
	.loc 1 51 23 discriminator 1 view .LVU469
.LBE375:
	.loc 1 46 1 is_stmt 0 view .LVU470
	leaq	8(%rsp), %r10
	.cfi_def_cfa 10, 0
	andq	$-32, %rsp
	pushq	-8(%r10)
	pushq	%rbp
	movq	%rsp, %rbp
	.cfi_escape 0x10,0x6,0x2,0x76,0
	pushq	%r15
	pushq	%r14
	pushq	%r13
	pushq	%r12
	pushq	%r10
	.cfi_escape 0xf,0x3,0x76,0x58,0x6
	.cfi_escape 0x10,0xf,0x2,0x76,0x78
	.cfi_escape 0x10,0xe,0x2,0x76,0x70
	.cfi_escape 0x10,0xd,0x2,0x76,0x68
	.cfi_escape 0x10,0xc,0x2,0x76,0x60
	pushq	%rbx
	leaq	32928(%rdi), %r15
	subq	$32, %rsp
	.cfi_escape 0x10,0x3,0x2,0x76,0x50
	movq	%rdi, %rbx
	.loc 1 46 1 view .LVU471
	movq	%rsi, -72(%rbp)
	movq	%rdx, -80(%rbp)
	movq	%rdi, %r12
	.loc 1 49 55 view .LVU472
	xorl	%r14d, %r14d
	.loc 1 49 42 view .LVU473
	movq	$0x000000000, -64(%rbp)
	.loc 1 49 29 view .LVU474
	xorl	%r13d, %r13d
	.loc 1 49 16 view .LVU475
	movq	$0x000000000, -56(%rbp)
.LVL110:
	.p2align 4
	.p2align 3
.L40:
.LBB376:
	.loc 1 52 9 is_stmt 1 view .LVU476
	.loc 1 52 23 is_stmt 0 view .LVU477
	call	rand@PLT
.LVL111:
	.loc 1 52 30 discriminator 1 view .LVU478
	vxorpd	%xmm7, %xmm7, %xmm7
	.loc 1 51 23 discriminator 1 view .LVU479
	addq	$24, %r12
.LVL112:
	.loc 1 52 48 discriminator 1 view .LVU480
	vmovsd	.LC12(%rip), %xmm5
	.loc 1 52 30 discriminator 1 view .LVU481
	vcvtsi2sdl	%eax, %xmm7, %xmm0
	.loc 1 52 48 discriminator 1 view .LVU482
	vfmadd132sd	.LC11(%rip), %xmm5, %xmm0
	.loc 1 52 21 discriminator 1 view .LVU483
	vmovsd	%xmm0, -24(%r12)
	.loc 1 53 9 is_stmt 1 view .LVU484
	.loc 1 53 23 is_stmt 0 view .LVU485
	call	rand@PLT
.LVL113:
	.loc 1 53 30 discriminator 1 view .LVU486
	vxorpd	%xmm7, %xmm7, %xmm7
	.loc 1 53 48 discriminator 1 view .LVU487
	vmovsd	.LC12(%rip), %xmm6
	.loc 1 53 30 discriminator 1 view .LVU488
	vcvtsi2sdl	%eax, %xmm7, %xmm0
	.loc 1 53 48 discriminator 1 view .LVU489
	vfmadd132sd	.LC11(%rip), %xmm6, %xmm0
	.loc 1 53 21 discriminator 1 view .LVU490
	vmovsd	%xmm0, -16(%r12)
	.loc 1 54 9 is_stmt 1 view .LVU491
	.loc 1 54 23 is_stmt 0 view .LVU492
	call	rand@PLT
.LVL114:
	.loc 1 54 30 discriminator 1 view .LVU493
	vxorpd	%xmm7, %xmm7, %xmm7
	.loc 1 54 48 discriminator 1 view .LVU494
	vmovsd	.LC12(%rip), %xmm3
	.loc 1 56 22 view .LVU495
	vmovsd	-24(%r12), %xmm2
	.loc 1 54 30 discriminator 1 view .LVU496
	vcvtsi2sdl	%eax, %xmm7, %xmm0
	.loc 1 54 48 discriminator 1 view .LVU497
	vfmadd132sd	.LC11(%rip), %xmm3, %xmm0
	.loc 1 56 15 view .LVU498
	vaddsd	-56(%rbp), %xmm2, %xmm5
	.loc 1 57 15 view .LVU499
	vmovq	%r13, %xmm3
	.loc 1 57 22 view .LVU500
	vmovsd	-16(%r12), %xmm1
	.loc 1 57 15 view .LVU501
	vaddsd	%xmm1, %xmm3, %xmm6
	.loc 1 56 15 view .LVU502
	vmovsd	%xmm5, -56(%rbp)
.LVL115:
	.loc 1 58 15 view .LVU503
	vaddsd	-64(%rbp), %xmm0, %xmm5
	.loc 1 54 21 discriminator 1 view .LVU504
	vmovsd	%xmm0, -8(%r12)
	.loc 1 56 9 is_stmt 1 view .LVU505
.LVL116:
	.loc 1 57 9 view .LVU506
	.loc 1 60 27 is_stmt 0 view .LVU507
	vmulsd	%xmm0, %xmm0, %xmm0
	.loc 1 57 15 view .LVU508
	vmovq	%xmm6, %r13
.LVL117:
	.loc 1 58 9 is_stmt 1 view .LVU509
	vmovq	%r14, %xmm6
.LVL118:
	.loc 1 58 9 is_stmt 0 view .LVU510
	vfmadd132sd	%xmm2, %xmm6, %xmm2
	vfmadd132sd	%xmm1, %xmm0, %xmm1
	.loc 1 59 15 view .LVU511
	vaddsd	%xmm1, %xmm2, %xmm3
	.loc 1 58 15 view .LVU512
	vmovsd	%xmm5, -64(%rbp)
.LVL119:
	.loc 1 59 9 is_stmt 1 view .LVU513
	.loc 1 59 15 is_stmt 0 view .LVU514
	vmovq	%xmm3, %r14
.LVL120:
	.loc 1 51 37 is_stmt 1 discriminator 3 view .LVU515
	.loc 1 51 23 discriminator 1 view .LVU516
	cmpq	%r15, %r12
	jne	.L40
.LBE376:
	.loc 1 63 5 view .LVU517
	.loc 1 63 11 is_stmt 0 view .LVU518
	vmovsd	.LC13(%rip), %xmm0
	.loc 1 64 11 view .LVU519
	vmovq	%r13, %xmm4
	.loc 1 66 19 view .LVU520
	vmovq	%r14, %xmm6
	.loc 1 66 11 view .LVU521
	movq	-72(%rbp), %rax
	.loc 1 63 11 view .LVU522
	vmulsd	-56(%rbp), %xmm0, %xmm3
.LVL121:
	.loc 1 64 5 is_stmt 1 view .LVU523
	.loc 1 67 11 is_stmt 0 view .LVU524
	movq	-80(%rbp), %rcx
	.loc 1 64 11 view .LVU525
	vmulsd	%xmm0, %xmm4, %xmm2
.LVL122:
	.loc 1 65 5 is_stmt 1 view .LVU526
	.loc 1 65 11 is_stmt 0 view .LVU527
	vmulsd	%xmm5, %xmm0, %xmm1
.LVL123:
	.loc 1 66 5 is_stmt 1 view .LVU528
	.loc 1 66 19 is_stmt 0 view .LVU529
	vmulsd	.LC14(%rip), %xmm6, %xmm0
	vxorpd	%xmm4, %xmm4, %xmm4
	.loc 1 66 11 view .LVU530
	vmovsd	%xmm0, (%rax)
	.loc 1 67 5 is_stmt 1 view .LVU531
	.loc 1 67 17 is_stmt 0 view .LVU532
	vmulsd	.LC2(%rip), %xmm6, %xmm0
	.loc 1 67 11 view .LVU533
	vmovsd	%xmm0, (%rcx)
	.loc 1 68 5 is_stmt 1 view .LVU534
	.loc 1 68 10 is_stmt 0 view .LVU535
	vmovsd	.LC6(%rip), %xmm0
	vdivsd	(%rax), %xmm0, %xmm0
	vucomisd	%xmm0, %xmm4
	ja	.L48
	vsqrtsd	%xmm0, %xmm0, %xmm0
.LVL124:
.L43:
	.loc 1 70 5 is_stmt 1 view .LVU536
.LBB377:
	.loc 1 70 10 view .LVU537
	.loc 1 70 23 discriminator 1 view .LVU538
	vunpcklpd	%xmm1, %xmm2, %xmm6
	vunpcklpd	%xmm3, %xmm1, %xmm1
	vunpcklpd	%xmm2, %xmm3, %xmm3
	vbroadcastsd	%xmm0, %ymm4
	vinsertf128	$0x1, %xmm6, %ymm1, %ymm5
	vinsertf128	$0x1, %xmm3, %ymm6, %ymm6
	vinsertf128	$0x1, %xmm1, %ymm3, %ymm3
.LVL125:
	.loc 1 70 23 is_stmt 0 discriminator 1 view .LVU539
	.p2align 6
	.p2align 4
	.p2align 3
.L44:
	.loc 1 72 9 is_stmt 1 view .LVU540
	.loc 1 72 28 is_stmt 0 view .LVU541
	vmovupd	32(%rbx), %ymm1
	vmovupd	64(%rbx), %ymm0
	addq	$96, %rbx
	vmovupd	-96(%rbx), %ymm2
	.loc 1 72 36 view .LVU542
	vsubpd	%ymm6, %ymm1, %ymm1
	vsubpd	%ymm5, %ymm0, %ymm0
	vsubpd	%ymm3, %ymm2, %ymm2
	.loc 1 72 45 view .LVU543
	vmulpd	%ymm4, %ymm1, %ymm1
	vmulpd	%ymm4, %ymm0, %ymm0
	.loc 1 73 9 is_stmt 1 view .LVU544
	.loc 1 74 9 view .LVU545
	.loc 1 72 45 is_stmt 0 view .LVU546
	vmulpd	%ymm4, %ymm2, %ymm2
	.loc 1 72 21 view .LVU547
	vmovupd	%ymm1, -64(%rbx)
	vmovupd	%ymm0, -32(%rbx)
	.loc 1 70 37 is_stmt 1 discriminator 3 view .LVU548
	.loc 1 70 23 discriminator 1 view .LVU549
	.loc 1 72 21 is_stmt 0 view .LVU550
	vmovupd	%ymm2, -96(%rbx)
	cmpq	%r15, %rbx
	jne	.L44
	vzeroupper
.LVL126:
.LBE377:
	.loc 1 76 1 view .LVU551
	addq	$32, %rsp
	popq	%rbx
	popq	%r10
	.cfi_remember_state
	.cfi_def_cfa 10, 0
	popq	%r12
	popq	%r13
.LVL127:
	.loc 1 76 1 view .LVU552
	popq	%r14
.LVL128:
	.loc 1 76 1 view .LVU553
	popq	%r15
.LVL129:
	.loc 1 76 1 view .LVU554
	popq	%rbp
.LVL130:
	.loc 1 76 1 view .LVU555
	leaq	-8(%r10), %rsp
	.cfi_def_cfa 7, 8
	ret
.LVL131:
.L48:
	.cfi_restore_state
	.loc 1 76 1 view .LVU556
	vmovsd	%xmm1, -72(%rbp)
.LVL132:
	.loc 1 76 1 view .LVU557
	vmovsd	%xmm2, -64(%rbp)
	vmovsd	%xmm3, -56(%rbp)
	.loc 1 68 10 view .LVU558
	call	sqrt@PLT
.LVL133:
	.loc 1 68 10 view .LVU559
	vmovsd	-72(%rbp), %xmm1
	vmovsd	-64(%rbp), %xmm2
	vmovsd	-56(%rbp), %xmm3
	jmp	.L43
	.cfi_endproc
.LFE6568:
	.size	init_vel, .-init_vel
	.p2align 4
	.globl	forces
	.type	forces, @function
forces:
.LVL134:
.LFB6570:
	.loc 1 103 1 is_stmt 1 view -0
	.cfi_startproc
	.loc 1 104 5 view .LVU561
	.loc 1 103 1 is_stmt 0 view .LVU562
	pushq	%rbp
	.cfi_def_cfa_offset 16
	.cfi_offset 6, -16
	movq	%rsp, %rbp
	.cfi_def_cfa_register 6
	pushq	%r15
	pushq	%r14
	pushq	%r13
	pushq	%r12
	pushq	%rbx
	.cfi_offset 15, -24
	.cfi_offset 14, -32
	.cfi_offset 13, -40
	.cfi_offset 12, -48
	.cfi_offset 3, -56
	movq	%rdi, %r15
	movq	%rsi, %r13
	andq	$-32, %rsp
	movq	%rdx, %r14
.LBB378:
	.loc 1 108 17 view .LVU563
	xorl	%esi, %esi
.LVL135:
	.loc 1 108 17 view .LVU564
	movq	%rcx, %rdi
.LVL136:
	.loc 1 108 17 view .LVU565
.LBE378:
	.loc 1 103 1 view .LVU566
	addq	$-128, %rsp
.LVL137:
.LBB379:
.LBI379:
	.loc 2 1320 1 is_stmt 1 view .LVU567
.LBB380:
	.loc 2 1322 3 view .LVU568
	.loc 2 1322 3 is_stmt 0 view .LVU569
.LBE380:
.LBE379:
	.loc 1 107 5 is_stmt 1 view .LVU570
.LBB382:
	.loc 1 107 10 view .LVU571
	.loc 1 107 23 discriminator 1 view .LVU572
	.loc 1 108 17 is_stmt 0 view .LVU573
	movl	$32928, %edx
.LVL138:
	.loc 1 108 17 view .LVU574
.LBE382:
	.loc 1 103 1 view .LVU575
	movq	%r8, %r12
	movq	%r9, %rbx
	vmovsd	%xmm1, 16(%rsp)
	vmovsd	%xmm2, 8(%rsp)
.LVL139:
	.loc 1 103 1 view .LVU576
	vmovsd	%xmm0, 24(%rsp)
.LBB383:
	.loc 1 108 17 view .LVU577
	call	memset@PLT
.LVL140:
	.loc 1 108 17 view .LVU578
.LBE383:
	.loc 1 110 5 is_stmt 1 view .LVU579
	.loc 1 111 5 view .LVU580
	.loc 1 112 5 view .LVU581
.LBB384:
	.loc 1 114 9 is_stmt 0 view .LVU582
	vmovq	%r15, %xmm4
	movq	%rax, 112(%rsp)
	movq	%r14, 80(%rsp)
	movq	$0x000000000, 104(%rsp)
	leaq	32(%rsp), %rsi
	xorl	%ecx, %ecx
	xorl	%edx, %edx
	leaq	forces._omp_fn.0(%rip), %rdi
	vmovq	.LC15(%rip), %xmm0
	vmovupd	%xmm0, 88(%rsp)
.LBE384:
.LBB385:
.LBB381:
	.loc 2 1322 10 view .LVU583
	vbroadcastsd	8(%rsp), %ymm0
.LBE381:
.LBE385:
.LBB386:
	.loc 1 114 9 view .LVU584
	vmovapd	%ymm0, 32(%rsp)
	vpinsrq	$1, %r13, %xmm4, %xmm0
	vmovdqa	%xmm0, 64(%rsp)
	vzeroupper
.LVL141:
	call	GOMP_parallel@PLT
.LVL142:
	.loc 1 114 9 view .LVU585
.LBE386:
	.loc 1 203 5 is_stmt 1 view .LVU586
	.loc 1 203 11 is_stmt 0 view .LVU587
	vmovsd	104(%rsp), %xmm0
	.loc 1 205 25 view .LVU588
	movq	16(%rbp), %rax
	vmovsd	24(%rsp), %xmm3
	.loc 1 203 11 view .LVU589
	vmovsd	%xmm0, (%r12)
	.loc 1 204 5 is_stmt 1 view .LVU590
	.loc 1 204 14 is_stmt 0 view .LVU591
	vmovsd	.LC16(%rip), %xmm0
	vmulsd	96(%rsp), %xmm0, %xmm0
.LVL143:
	.loc 1 205 5 is_stmt 1 view .LVU592
	.loc 1 204 14 is_stmt 0 view .LVU593
	vdivsd	16(%rsp), %xmm0, %xmm0
.LVL144:
	.loc 1 205 25 view .LVU594
	vfmadd132sd	(%rax), %xmm0, %xmm3
	.loc 1 205 11 view .LVU595
	vmovsd	%xmm3, (%rbx)
	.loc 1 206 1 view .LVU596
	leaq	-40(%rbp), %rsp
.LVL145:
	.loc 1 206 1 view .LVU597
	popq	%rbx
.LVL146:
	.loc 1 206 1 view .LVU598
	popq	%r12
.LVL147:
	.loc 1 206 1 view .LVU599
	popq	%r13
.LVL148:
	.loc 1 206 1 view .LVU600
	popq	%r14
.LVL149:
	.loc 1 206 1 view .LVU601
	popq	%r15
.LVL150:
	.loc 1 206 1 view .LVU602
	popq	%rbp
	.cfi_def_cfa 7, 8
.LVL151:
	.loc 1 206 1 view .LVU603
	ret
	.cfi_endproc
.LFE6570:
	.size	forces, .-forces
	.p2align 4
	.globl	velocity_verlet
	.type	velocity_verlet, @function
velocity_verlet:
.LVL152:
.LFB6572:
	.loc 1 224 1 is_stmt 1 view -0
	.cfi_startproc
	.loc 1 224 1 is_stmt 0 view .LVU605
	pushq	%r15
	.cfi_def_cfa_offset 16
	.cfi_offset 15, -16
	pushq	%r14
	.cfi_def_cfa_offset 24
	.cfi_offset 14, -24
	pushq	%r13
	.cfi_def_cfa_offset 32
	.cfi_offset 13, -32
	movq	%r8, %r15
	pushq	%r12
	.cfi_def_cfa_offset 40
	.cfi_offset 12, -40
	pushq	%rbp
	.cfi_def_cfa_offset 48
	.cfi_offset 6, -48
	pushq	%rbx
	.cfi_def_cfa_offset 56
	.cfi_offset 3, -56
	movq	%rcx, %r13
	subq	$8, %rsp
	.cfi_def_cfa_offset 64
	.loc 1 224 1 view .LVU606
	movq	%rdi, %r10
	movq	%rsi, %r11
	movq	%rdx, %r14
	.loc 1 226 5 is_stmt 1 view .LVU607
.LBB387:
	.loc 1 226 10 view .LVU608
.LVL153:
	.loc 1 226 23 discriminator 1 view .LVU609
.LBE387:
	.loc 1 224 1 is_stmt 0 view .LVU610
	movq	%r9, %r8
.LVL154:
	.loc 1 224 1 view .LVU611
	movq	%rdi, %rcx
.LVL155:
	.loc 1 224 1 view .LVU612
	vmovsd	.LC17(%rip), %xmm7
	movq	%rsi, %rdi
.LVL156:
	.loc 1 224 1 view .LVU613
	vmovsd	.LC18(%rip), %xmm5
	movq	%rdx, %rsi
.LVL157:
	.loc 1 224 1 view .LVU614
	vmovsd	.LC19(%rip), %xmm3
	vmovapd	%xmm0, %xmm6
	movq	80(%rsp), %rbp
	movq	%r13, %rbx
	movq	%r15, %r12
	leaq	10976(%r10), %r9
.LVL158:
	.loc 1 224 1 view .LVU615
	movq	%r15, %rdx
.LVL159:
	.loc 1 224 1 view .LVU616
	movq	%r13, %rax
.LBB400:
.LBB388:
.LBB389:
	.loc 1 212 8 view .LVU617
	vxorpd	%xmm4, %xmm4, %xmm4
	jmp	.L65
.LVL160:
	.p2align 4
	.p2align 3
.L75:
	.loc 1 214 12 is_stmt 1 view .LVU618
	.loc 1 215 15 is_stmt 0 view .LVU619
	vsubsd	%xmm2, %xmm0, %xmm8
	vcmpltsd	%xmm0, %xmm2, %xmm9
	vblendvpd	%xmm9, %xmm8, %xmm0, %xmm0
.LVL161:
	.loc 1 217 5 is_stmt 1 view .LVU620
	.loc 1 217 5 is_stmt 0 view .LVU621
.LBE389:
.LBE388:
	.loc 1 231 15 discriminator 1 view .LVU622
	vmovsd	%xmm0, (%rcx)
	.loc 1 232 9 is_stmt 1 view .LVU623
	.loc 1 232 17 is_stmt 0 view .LVU624
	vmovsd	(%rdi), %xmm0
.LVL162:
.LBB391:
.LBI391:
	.loc 1 209 15 is_stmt 1 view .LVU625
.LBB392:
	.loc 1 212 5 view .LVU626
	.loc 1 212 8 is_stmt 0 view .LVU627
	vcomisd	%xmm0, %xmm4
	jnb	.L79
.L76:
	.loc 1 214 12 is_stmt 1 view .LVU628
	.loc 1 215 15 is_stmt 0 view .LVU629
	vsubsd	%xmm2, %xmm0, %xmm8
	vcmpltsd	%xmm0, %xmm2, %xmm9
	vblendvpd	%xmm9, %xmm8, %xmm0, %xmm0
.LVL163:
	.loc 1 217 5 is_stmt 1 view .LVU630
	.loc 1 217 5 is_stmt 0 view .LVU631
.LBE392:
.LBE391:
	.loc 1 232 15 discriminator 1 view .LVU632
	vmovsd	%xmm0, (%rdi)
	.loc 1 233 9 is_stmt 1 view .LVU633
	.loc 1 233 17 is_stmt 0 view .LVU634
	vmovsd	(%rsi), %xmm0
.LVL164:
.LBB394:
.LBI394:
	.loc 1 209 15 is_stmt 1 view .LVU635
.LBB395:
	.loc 1 212 5 view .LVU636
	.loc 1 212 8 is_stmt 0 view .LVU637
	vcomisd	%xmm0, %xmm4
	jnb	.L80
.L77:
	.loc 1 214 12 is_stmt 1 view .LVU638
	.loc 1 215 15 is_stmt 0 view .LVU639
	vsubsd	%xmm2, %xmm0, %xmm8
	vcmpltsd	%xmm0, %xmm2, %xmm9
	vblendvpd	%xmm9, %xmm8, %xmm0, %xmm0
.LVL165:
.L63:
	.loc 1 217 5 is_stmt 1 view .LVU640
	.loc 1 217 5 is_stmt 0 view .LVU641
.LBE395:
.LBE394:
	.loc 1 233 15 discriminator 1 view .LVU642
	vmovsd	%xmm0, (%rsi)
	.loc 1 235 9 is_stmt 1 view .LVU643
	.loc 1 235 23 is_stmt 0 view .LVU644
	vmovsd	(%rdx), %xmm0
	.loc 1 226 23 discriminator 1 view .LVU645
	addq	$8, %rcx
	addq	$24, %rax
	.loc 1 235 23 view .LVU646
	vfmadd213sd	-24(%rax), %xmm3, %xmm0
	.loc 1 226 23 discriminator 1 view .LVU647
	addq	$24, %rdx
	addq	$8, %rdi
	addq	$8, %rsi
	.loc 1 235 23 view .LVU648
	vmovsd	%xmm0, -24(%rax)
	.loc 1 236 9 is_stmt 1 view .LVU649
	.loc 1 236 23 is_stmt 0 view .LVU650
	vmovsd	-16(%rdx), %xmm0
	vfmadd213sd	-16(%rax), %xmm3, %xmm0
	vmovsd	%xmm0, -16(%rax)
	.loc 1 237 9 is_stmt 1 view .LVU651
	.loc 1 237 23 is_stmt 0 view .LVU652
	vmovsd	-8(%rdx), %xmm0
	vfmadd213sd	-8(%rax), %xmm3, %xmm0
	vmovsd	%xmm0, -8(%rax)
	.loc 1 226 33 is_stmt 1 discriminator 3 view .LVU653
	.loc 1 226 23 discriminator 1 view .LVU654
	cmpq	%r9, %rcx
	je	.L81
.L65:
	.loc 1 227 9 view .LVU655
	.loc 1 227 15 is_stmt 0 view .LVU656
	vmovsd	(%rax), %xmm0
	vfmadd213sd	(%rcx), %xmm7, %xmm0
	vfmadd231sd	(%rdx), %xmm5, %xmm0
	vmovsd	%xmm0, (%rcx)
	.loc 1 228 9 is_stmt 1 view .LVU657
	.loc 1 228 15 is_stmt 0 view .LVU658
	vmovsd	8(%rax), %xmm0
	vfmadd213sd	(%rdi), %xmm7, %xmm0
	vfmadd231sd	8(%rdx), %xmm5, %xmm0
	vmovsd	%xmm0, (%rdi)
	.loc 1 229 9 is_stmt 1 view .LVU659
	.loc 1 229 15 is_stmt 0 view .LVU660
	vmovsd	16(%rax), %xmm0
	vfmadd213sd	(%rsi), %xmm7, %xmm0
	vfmadd231sd	16(%rdx), %xmm5, %xmm0
	vmovsd	%xmm0, (%rsi)
	.loc 1 231 9 is_stmt 1 view .LVU661
	.loc 1 231 17 is_stmt 0 view .LVU662
	vmovsd	(%rcx), %xmm0
.LVL166:
.LBB397:
.LBI388:
	.loc 1 209 15 is_stmt 1 view .LVU663
.LBB390:
	.loc 1 212 5 view .LVU664
	.loc 1 212 8 is_stmt 0 view .LVU665
	vcomisd	%xmm0, %xmm4
	jb	.L75
	.loc 1 213 9 is_stmt 1 view .LVU666
	.loc 1 213 15 is_stmt 0 view .LVU667
	vaddsd	%xmm2, %xmm0, %xmm0
.LVL167:
	.loc 1 217 5 is_stmt 1 view .LVU668
	.loc 1 217 5 is_stmt 0 view .LVU669
.LBE390:
.LBE397:
	.loc 1 231 15 discriminator 1 view .LVU670
	vmovsd	%xmm0, (%rcx)
	.loc 1 232 9 is_stmt 1 view .LVU671
	.loc 1 232 17 is_stmt 0 view .LVU672
	vmovsd	(%rdi), %xmm0
.LVL168:
.LBB398:
	.loc 1 209 15 is_stmt 1 view .LVU673
.LBB393:
	.loc 1 212 5 view .LVU674
	.loc 1 212 8 is_stmt 0 view .LVU675
	vcomisd	%xmm0, %xmm4
	jb	.L76
.L79:
	.loc 1 213 9 is_stmt 1 view .LVU676
	.loc 1 213 15 is_stmt 0 view .LVU677
	vaddsd	%xmm2, %xmm0, %xmm0
.LVL169:
	.loc 1 217 5 is_stmt 1 view .LVU678
	.loc 1 217 5 is_stmt 0 view .LVU679
.LBE393:
.LBE398:
	.loc 1 232 15 discriminator 1 view .LVU680
	vmovsd	%xmm0, (%rdi)
	.loc 1 233 9 is_stmt 1 view .LVU681
	.loc 1 233 17 is_stmt 0 view .LVU682
	vmovsd	(%rsi), %xmm0
.LVL170:
.LBB399:
	.loc 1 209 15 is_stmt 1 view .LVU683
.LBB396:
	.loc 1 212 5 view .LVU684
	.loc 1 212 8 is_stmt 0 view .LVU685
	vcomisd	%xmm0, %xmm4
	jb	.L77
.L80:
	.loc 1 213 9 is_stmt 1 view .LVU686
	.loc 1 213 15 is_stmt 0 view .LVU687
	vaddsd	%xmm2, %xmm0, %xmm0
.LVL171:
	.loc 1 213 15 view .LVU688
	jmp	.L63
.LVL172:
.L81:
	.loc 1 213 15 view .LVU689
.LBE396:
.LBE399:
.LBE400:
	.loc 1 240 5 is_stmt 1 view .LVU690
	subq	$8, %rsp
	.cfi_def_cfa_offset 72
	movq	%r14, %rdx
	vmovapd	%xmm6, %xmm0
	movq	%r15, %rcx
	pushq	%rbp
	.cfi_def_cfa_offset 80
	movq	88(%rsp), %r9
	movq	%r11, %rsi
	movq	%r10, %rdi
	addq	$32928, %r13
	call	forces
.LVL173:
	.loc 1 242 5 view .LVU691
	.loc 1 243 5 view .LVU692
.LBB401:
	.loc 1 243 10 view .LVU693
	.loc 1 243 23 discriminator 1 view .LVU694
.LBE401:
	.loc 1 242 12 is_stmt 0 view .LVU695
	vmovsd	.LC19(%rip), %xmm3
	vxorpd	%xmm1, %xmm1, %xmm1
	popq	%rax
	.cfi_def_cfa_offset 72
	popq	%rdx
	.cfi_def_cfa_offset 64
.LVL174:
	.p2align 4
	.p2align 3
.L66:
.LBB402:
	.loc 1 244 9 is_stmt 1 view .LVU696
	.loc 1 244 21 is_stmt 0 view .LVU697
	vmovsd	(%r12), %xmm2
	.loc 1 243 23 discriminator 1 view .LVU698
	addq	$24, %rbx
.LVL175:
	.loc 1 243 23 discriminator 1 view .LVU699
	addq	$24, %r12
	.loc 1 244 21 view .LVU700
	vfmadd213sd	-24(%rbx), %xmm3, %xmm2
	vmovsd	%xmm2, -24(%rbx)
	.loc 1 245 9 is_stmt 1 view .LVU701
	.loc 1 245 21 is_stmt 0 view .LVU702
	vmovsd	-16(%r12), %xmm4
	vfmadd213sd	-16(%rbx), %xmm3, %xmm4
	vmovsd	%xmm4, -16(%rbx)
	.loc 1 246 9 is_stmt 1 view .LVU703
	.loc 1 246 21 is_stmt 0 view .LVU704
	vmovsd	-8(%r12), %xmm0
	.loc 1 248 58 view .LVU705
	vmulsd	%xmm4, %xmm4, %xmm4
	.loc 1 246 21 view .LVU706
	vfmadd213sd	-8(%rbx), %xmm3, %xmm0
	vfmadd132sd	%xmm2, %xmm4, %xmm2
	vmovsd	%xmm0, -8(%rbx)
	.loc 1 248 9 is_stmt 1 view .LVU707
	vfmadd132sd	%xmm0, %xmm1, %xmm0
	.loc 1 248 15 is_stmt 0 view .LVU708
	vaddsd	%xmm0, %xmm2, %xmm1
.LVL176:
	.loc 1 243 37 is_stmt 1 discriminator 3 view .LVU709
	.loc 1 243 23 discriminator 1 view .LVU710
	cmpq	%r13, %rbx
	jne	.L66
.LBE402:
	.loc 1 252 5 view .LVU711
	.loc 1 252 17 is_stmt 0 view .LVU712
	vmulsd	.LC2(%rip), %xmm1, %xmm0
	.loc 1 253 19 view .LVU713
	vmulsd	.LC14(%rip), %xmm1, %xmm1
.LVL177:
	.loc 1 252 11 view .LVU714
	movq	64(%rsp), %rax
	vmovsd	%xmm0, (%rax)
	.loc 1 253 5 is_stmt 1 view .LVU715
	.loc 1 253 11 is_stmt 0 view .LVU716
	vmovsd	%xmm1, 0(%rbp)
	.loc 1 254 1 view .LVU717
	addq	$8, %rsp
	.cfi_def_cfa_offset 56
	popq	%rbx
	.cfi_def_cfa_offset 48
	popq	%rbp
	.cfi_def_cfa_offset 40
	popq	%r12
	.cfi_def_cfa_offset 32
	popq	%r13
	.cfi_def_cfa_offset 24
.LVL178:
	.loc 1 254 1 view .LVU718
	popq	%r14
	.cfi_def_cfa_offset 16
.LVL179:
	.loc 1 254 1 view .LVU719
	popq	%r15
	.cfi_def_cfa_offset 8
.LVL180:
	.loc 1 254 1 view .LVU720
	ret
	.cfi_endproc
.LFE6572:
	.size	velocity_verlet, .-velocity_verlet
	.section	.rodata.cst8,"aM",@progbits,8
	.align 8
.LC2:
	.long	0
	.long	1071644672
	.align 8
.LC4:
	.long	0
	.long	-2147483648
	.align 8
.LC5:
	.long	0
	.long	1072693248
	.align 8
.LC6:
	.long	0
	.long	1073741824
	.align 8
.LC7:
	.long	0
	.long	-1074790400
	.align 8
.LC8:
	.long	0
	.long	1077411840
	.align 8
.LC9:
	.long	120897443
	.long	1066448224
	.align 8
.LC10:
	.long	0
	.long	1074790400
	.align 8
.LC11:
	.long	2097152
	.long	1040187392
	.align 8
.LC12:
	.long	0
	.long	-1075838976
	.align 8
.LC13:
	.long	1364872989
	.long	1061675557
	.align 8
.LC14:
	.long	-1043480879
	.long	1060100145
	.section	.rodata.cst16,"aM",@progbits,16
	.align 16
.LC15:
	.long	0
	.long	1075380224
	.long	0
	.long	0
	.section	.rodata.cst8
	.align 8
.LC16:
	.long	1431655765
	.long	1070945621
	.align 8
.LC17:
	.long	1202590843
	.long	1064598241
	.align 8
.LC18:
	.long	-350469331
	.long	1055536866
	.align 8
.LC19:
	.long	1202590843
	.long	1063549665
	.text
.Letext0:
	.file 3 "/usr/include/x86_64-linux-gnu/bits/mathcalls.h"
	.file 4 "<built-in>"
	.file 5 "/usr/include/stdlib.h"
	.section	.note.GNU-stack,"",@progbits
